((dp0
S'arm_dbg_args'
p1
S'-via:"c:\\Users\\Sean\\Documents\\C++\\Mormalade\\Game01\\build_game01_vc12x\\Game01_vc12x_arm_debug.via" -qemu'
p2
sS'game-icf'
p3
S''
p4
sS'dist'
p5
NsS'csproj'
p6
g4
sS'module_path_append'
p7
NsS'global_path'
p8
S'c:\\users\\sean\\documents\\c++\\mormalade'
p9
sS'system_path'
p10
S'c:\\marmalade\\7.6\\s3e\\makefile_builder'
p11
sS'android_x86_dbg_args'
p12
S'../../tools/DeployTool/DeployTool.exe --dir "c:\\Users\\Sean\\Documents\\C++\\Mormalade\\Game01\\build_game01_vc12x"'
p13
sS'aarch64-arch-mod'
p14
g4
sS'no-emit'
p15
NsS'arm-float-abi'
p16
g4
sS'arm_rel_rtsm_args'
p17
S'-via:"c:\\Users\\Sean\\Documents\\C++\\Mormalade\\Game01\\build_game01_vc12x\\Game01_vc12x_arm_release.via" -qemu'
p18
sS'amd64'
p19
NsS'line-width'
p20
I80
sS'gcc_dbg_args'
p21
S'-via:"c:\\Users\\Sean\\Documents\\C++\\Mormalade\\Game01\\build_game01_vc12x\\Game01_vc12x_gcc_debug.via" -qemu'
p22
sS'android-x86'
p23
NsS'x86_dbg_exe'
p24
S'c:/marmalade/7.6/s3e\\win32\\s3e_simulator_debug.exe'
p25
sS'disable-runtime-checks'
p26
NsS'release'
p27
NsS'no-make'
p28
NsS'xcode-x86-build-settings'
p29
g4
sS'optimise-size'
p30
NsS'fat'
p31
NsS'output-name-debug'
p32
g4
sS'arm-fpu'
p33
g4
sS'proj_name'
p34
S'Game01_vc12x'
p35
sS'rvct-version'
p36
S'none'
p37
sS'compiler'
p38
g4
sS'execute'
p39
I01
sS'compile-static'
p40
NsS'msvc-project'
p41
NsS'buildenv'
p42
S'VC12X'
p43
sS'quick'
p44
NsS'module_path'
p45
NsS'mkf_default'
p46
S's3e-default.mkf'
p47
sS'use-release-std-libs'
p48
NsS'using_perforce'
p49
I00
sS'tizen-x86'
p50
NsS'mips-s3e'
p51
NsS's3e-api-lib-name'
p52
S's3e_api_iwgl'
p53
sS'ios-no-pic'
p54
NsS'shared-arm-lib'
p55
NsS'arm-cpu'
p56
g4
sS'compile-thumb'
p57
NsS'no-ide'
p58
I01
sS'msvc-version'
p59
S'6.0'
p60
sS'arm'
p61
NsS'builddir'
p62
g4
sS'compile-debug-as-release'
p63
I0
sS'arm-arch'
p64
g4
sS'brief'
p65
NsS'dll'
p66
NsS'buildenv-toolset'
p67
g4
sS'version'
p68
NsS'aarch64-arch'
p69
g4
sS'ccache'
p70
I0
sS'offline'
p71
NsS'ios-version'
p72
g4
sS'hub_data'
p73
g4
sS'fake_vc_call'
p74
NsS'jobs'
p75
I0
sS'linkflags'
p76
NsS'gcc_aarch64_dbg_args'
p77
g13
sS'debug'
p78
I01
sS'xcode-build-order'
p79
g4
sS'gcc_aarch64_rel_rtsm_args'
p80
S'-via:"c:\\Users\\Sean\\Documents\\C++\\Mormalade\\Game01\\build_game01_vc12x\\Game01_vc12x_gcc_aarch64_release.via" -qemu'
p81
sS'gcc_rel_rtsm_args'
p82
S'-via:"c:\\Users\\Sean\\Documents\\C++\\Mormalade\\Game01\\build_game01_vc12x\\Game01_vc12x_gcc_release.via" -qemu'
p83
sS'done_defaults'
p84
I1
sS'path'
p85
NsS's3e-data-dir'
p86
S'c:/Users/Sean/Documents/C++/Mormalade/Game01\\data'
p87
sS'enable-exceptions'
p88
NsS'osx-dll'
p89
NsS'extension'
p90
g4
sS'no-vc6'
p91
NsS'aarch64'
p92
NsS'win32-console'
p93
NsS'dist-format'
p94
g4
sS's3e-force-arch'
p95
NsS'dump_defines'
p96
NsS'use-shared-std-libs'
p97
NsS'gcc-version'
p98
g4
sS'x86_dbg_args'
p99
S'-via:"c:\\Users\\Sean\\Documents\\C++\\Mormalade\\Game01\\build_game01_vc12x\\Game01_vc12x_debug.via"'
p100
sS'tizen_x86_dbg_args'
p101
g13
sS'arm-debugger'
p102
g4
sS'use_temp_extension'
p103
NsS'verbose'
p104
I0
sS'log'
p105
NsS'no-strip'
p106
NsS'rebuild'
p107
NsS'mips_dbg_args'
p108
g13
sS'win32-simulator-dll'
p109
NsS'strict'
p110
NsS'xcode-aarch64-build-settings'
p111
g4
sS'enable-global-path'
p112
NsS'gcc_aarch64_rel_args'
p113
g13
sS'cflags'
p114
NsS'dist-dir'
p115
g4
sS'xcode-arm-build-settings'
p116
g4
sS'jflags'
p117
NsS'csprojSDKRefs'
p118
g4
sS'tizen_x86_rel_exe'
p119
S'c:\\marmalade\\7.6\\s3e\\makefile_builder\\tool_launcher.exe'
p120
sS'test-assets'
p121
g4
sS'distcc'
p122
NsS'external-compiler'
p123
NsS'no-distcc'
p124
NsS'preinclude'
p125
NsS'using_sdk'
p126
I01
sS'nologo'
p127
NsS'warn-level'
p128
I2
sS'mips_dbg_exe'
p129
g120
sS'mkb_in'
p130
S'c:/Users/Sean/Documents/C++/Mormalade/Game01/Game01.mkb'
p131
sS'tizen_x86_dbg_exe'
p132
g120
sS'arm_dbg_exe'
p133
S'c:/marmalade/7.6/s3e\\bin\\armdebug.exe'
p134
sS'mdev-first'
p135
NsS'csprojDLLRef'
p136
NsS'tizen_x86_rel_args'
p137
g13
sS'android_x86_dbg_exe'
p138
g120
sS'test-config'
p139
g4
sS'list-targets'
p140
NsS'arm_rel_exe'
p141
g120
sS'arm_rel_args'
p142
g13
sS'makedeps'
p143
NsS'android_x86_rel_exe'
p144
g120
sS'default-buildenv'
p145
S'VC12X'
p146
sS'x86_rel_exe'
p147
g25
sS'preprocess-java'
p148
NsS'mips_rel_args'
p149
g13
sS'defines'
p150
NsS'lib'
p151
NsS'non-interactive'
p152
NsS'global_argv'
p153
(lp154
S'C:\\Marmalade\\7.6\\s3e\\makefile_builder\\mkb.py'
p155
aS'C:/Users/Sean/Documents/C++/Mormalade/Game01/Game01.mkb'
p156
aS'--buildenv=VC12X'
p157
aS'--debug'
p158
aS'--x86'
p159
aS'--no-ide'
p160
aS'--execute'
p161
asS'make'
p162
NsS'optimise-speed'
p163
NsS'internal'
p164
NsS'enable-stdinc'
p165
NsS'deploy-only'
p166
NsS'x86'
p167
I01
sS'deploy'
p168
g4
sS'x86_run_exe'
p169
S'c:/marmalade/7.6/s3e\\win32\\s3e_console.exe'
p170
sS'cxxflags'
p171
NsS'x86_rel_args'
p172
S'-via:"c:\\Users\\Sean\\Documents\\C++\\Mormalade\\Game01\\build_game01_vc12x\\Game01_vc12x_release.via"'
p173
sS'gcc_rel_args'
p174
g13
sS'mips'
p175
NsS'xcode-build-settings'
p176
g4
sS'incredibuild'
p177
NsS'strict-compile'
p178
NsS'use-auto-subdirs'
p179
NsS'mips_rel_exe'
p180
g120
sS'android_x86_rel_args'
p181
g13
sS'app-icf'
p182
g4
sS'deployargs'
p183
NsS'iosnativedebug'
p184
NsS'use_prebuilt'
p185
NsS'mkf_in'
p186
(lp187
S'c:\\marmalade\\7.6\\s3e\\s3e-default.mkf'
p188
aS'c:\\marmalade\\7.6\\modules\\iwutil\\iwutil.mkf'
p189
aS'c:\\marmalade\\7.6\\modules\\third_party\\libjpeg\\libjpeg.mkf'
p190
aS'c:\\marmalade\\7.6\\modules\\third_party\\libpng\\libpng.mkf'
p191
aS'c:\\marmalade\\7.6\\modules\\third_party\\zlib\\zlib.mkf'
p192
aS'c:\\marmalade\\7.6\\modules\\iwgx\\iwgx.mkf'
p193
aS'c:\\marmalade\\7.6\\modules\\iwgl\\iwgl.mkf'
p194
aS'c:\\marmalade\\7.6\\modules\\iwgeom\\iwgeom.mkf'
p195
aS'c:\\marmalade\\7.6\\modules\\iwresmanager\\iwresmanager.mkf'
p196
aS'c:\\marmalade\\7.6\\extensions\\pvrtextool\\pvrtextool.mkf'
p197
aS'c:\\marmalade\\7.6\\modules\\iw2d\\iw2d.mkf'
p198
aS'c:\\marmalade\\7.6\\modules\\iwgxfont\\iwgxfont.mkf'
p199
aS'c:\\marmalade\\7.6\\modules\\third_party\\tiniconv\\tiniconv.mkf'
p200
asS'strict-mkb'
p201
NsS'executeargs'
p202
NsS'clean'
p203
NsS'no-asm'
p204
NsS'output-name'
p205
g4
sS'no-modules'
p206
NsS'find_define'
p207
g4
s(dp208
S'c:\\marmalade\\7.6\\s3e\\makefile_builder\\templates\\win32_sln.pyc'
p209
F1426254158.0
sS'c:\\marmalade\\7.6\\s3e\\makefile_builder\\templates\\ws81_sln.pyc'
p210
F1426254158.0
sS'c:\\marmalade\\7.6\\s3e\\makefile_builder\\templates\\qmake.py'
p211
F1426247824.0
sS'c:\\marmalade\\7.6\\s3e\\makefile_builder\\templates\\xcode_pbxuser.py'
p212
F1426247824.0
sS'c:\\marmalade\\7.6\\s3e\\makefile_builder\\docs\\deprecated.defines.txt'
p213
F1426247822.0
sS'c:\\marmalade\\7.6\\s3e\\makefile_builder\\plugins\\ws81_ws81.pyc'
p214
F1426254156.0
sS'c:\\marmalade\\7.6\\s3e\\makefile_builder\\plugins\\xcode4_schememanagement.pyc'
p215
F1427074422.8385227
sS'c:\\marmalade\\7.6\\s3e\\makefile_builder\\plugins\\deploy.pyc'
p216
F1426254156.0
sS'c:\\marmalade\\7.6\\s3e\\makefile_builder\\templates'
p217
F1427029138.873057
sS'c:\\marmalade\\7.6\\s3e\\makefile_builder\\templates\\ws81_csproj.pyc'
p218
F1426254158.0
sS'c:\\marmalade\\7.6\\s3e\\makefile_builder\\plugins\\ws8_ws8.pyc'
p219
F1426254156.0
sS'c:\\marmalade\\7.6\\s3e\\makefile_builder\\templates\\gdb_start.txt'
p220
F1426247824.0
sS'c:\\marmalade\\7.6\\s3e\\makefile_builder\\templates\\vc6_opt.pyc'
p221
F1426254158.0
sS'c:\\marmalade\\7.6\\s3e\\makefile_builder\\plugins\\wp8_wp8.pyc'
p222
F1426254156.0
sS'c:\\marmalade\\7.6\\s3e\\makefile_builder\\templates\\ws8_csproj_user.pyc'
p223
F1426254158.0
sS'c:\\marmalade\\7.6\\s3e\\makefile_builder\\templates\\wp8_csproj_user.pyc'
p224
F1426254158.0
sS'c:\\marmalade\\7.6\\s3e\\makefile_builder\\plugins\\s3e_win8.pyc'
p225
F1426254156.0
sS'c:\\marmalade\\7.6\\s3e\\makefile_builder\\mkb_upstream.pyc'
p226
F1426254156.0
sS'c:\\marmalade\\7.6\\s3e\\makefile_builder\\mkb_parser.pyc'
p227
F1426254156.0
sS'c:\\marmalade\\7.6\\s3e\\makefile_builder\\templates\\xcode.py'
p228
F1426247824.0
sS'c:\\marmalade\\7.6\\s3e\\makefile_builder\\plugins\\s3e_qmake.py'
p229
F1426247824.0
sS'c:\\marmalade\\7.6\\s3e\\makefile_builder\\templates\\ws81_vcxproj.pyc'
p230
F1426254158.0
sS'c:\\marmalade\\7.6\\s3e\\makefile_builder\\plugins\\Emitter.pyc'
p231
F1426254156.0
sS'c:\\marmalade\\7.6\\s3e\\makefile_builder\\templates\\win8_csproj_user.pyc'
p232
F1426254158.0
sS'c:\\marmalade\\7.6\\s3e\\makefile_builder\\templates\\xcode4_arm.xcscheme'
p233
F1426247824.0
sS'c:\\marmalade\\7.6\\s3e\\makefile_builder\\plugins\\s3e_xcode.py'
p234
F1426247824.0
sS'c:\\marmalade\\7.6\\s3e\\makefile_builder\\templates\\win32_dsp.pyc'
p235
F1426254158.0
sS'c:\\marmalade\\7.6\\s3e\\makefile_builder\\plugins\\osx_scons.pyc'
p236
F1426254156.0
sS'c:\\marmalade\\7.6\\s3e\\makefile_builder\\templates\\vc8_user.pyc'
p237
F1426254158.0
sS'c:\\marmalade\\7.6\\s3e\\makefile_builder\\templates\\wp81_vcxproj.pyc'
p238
F1426254158.0
sS'c:\\marmalade\\7.6\\s3e\\makefile_builder\\plugins\\osx_xcode.pyc'
p239
F1426254156.0
sS'c:\\marmalade\\7.6\\s3e\\makefile_builder\\plugins\\MakeEmitter.pyc'
p240
F1426254156.0
sS'c:\\marmalade\\7.6\\s3e\\makefile_builder\\plugins\\xcode4_schememanagement.py'
p241
F1426247824.0
sS'c:\\marmalade\\7.6\\s3e\\makefile_builder\\templates\\ws8_sln.pyc'
p242
F1426254158.0
sS'c:\\marmalade\\7.6\\s3e\\makefile_builder\\plugins\\null.pyc'
p243
F1426254156.0
sS'c:\\marmalade\\7.6\\s3e\\makefile_builder\\docs\\parse_options.pyc'
p244
F1426254158.0
sS'c:\\marmalade\\7.6\\s3e\\makefile_builder\\plugins\\s3e_wp8.pyc'
p245
F1426254156.0
sS'c:\\marmalade\\7.6\\s3e\\makefile_builder\\templates\\wp81_ext_sln.pyc'
p246
F1426254158.0
sS'c:\\marmalade\\7.6\\s3e\\makefile_builder\\mkb_launcher.exe'
p247
F1426248470.0
sS'c:\\marmalade\\7.6\\s3e\\makefile_builder\\mkb.py'
p248
F1426247822.0
sS'c:\\marmalade\\7.6\\s3e\\makefile_builder\\plugins\\iphone.pyc'
p249
F1426254156.0
sS'c:\\marmalade\\7.6\\s3e\\makefile_builder\\tool_launcher.exe'
p250
F1426248470.0
sS'c:\\marmalade\\7.6\\s3e\\makefile_builder\\plugins\\vc7_utils.pyc'
p251
F1426254156.0
sS'c:\\marmalade\\7.6\\s3e\\makefile_builder\\plugins\\s3e_scons.pyc'
p252
F1426254156.0
sS'c:\\marmalade\\7.6\\s3e\\makefile_builder\\templates\\wp81_csproj_user.pyc'
p253
F1426254158.0
sS'c:\\marmalade\\7.6\\s3e\\makefile_builder\\templates\\win32_dsw.pyc'
p254
F1426254158.0
sS'c:\\marmalade\\7.6\\s3e\\makefile_builder\\plugins\\win8_utils.pyc'
p255
F1426254156.0
sS'c:\\marmalade\\7.6\\s3e\\makefile_builder\\templates\\ws81_csproj_user.pyc'
p256
F1426254158.0
sS'c:\\marmalade\\7.6\\s3e\\makefile_builder\\plugins\\s3e_web.pyc'
p257
F1426254156.0
sS'c:\\marmalade\\7.6\\s3e\\makefile_builder\\templates\\win32_vcproj.pyc'
p258
F1426254158.0
sS'c:\\marmalade\\7.6\\s3e\\makefile_builder\\docs\\deprecated.options.txt'
p259
F1426247822.0
sS'c:\\marmalade\\7.6\\s3e\\makefile_builder\\plugins\\s3e_ws8.pyc'
p260
F1426254156.0
sS'c:\\marmalade\\7.6\\s3e\\makefile_builder\\templates\\vc7_suo.pyc'
p261
F1426254158.0
sS'c:\\marmalade\\7.6\\s3e\\makefile_builder\\plugins\\vc6_utils.pyc'
p262
F1426254156.0
sS'c:\\marmalade\\7.6\\s3e\\makefile_builder\\docs\\options.txt'
p263
F1426247822.0
sS'c:\\marmalade\\7.6\\s3e\\makefile_builder\\templates\\win8_csproj.pyc'
p264
F1426254158.0
sS'c:\\marmalade\\7.6\\s3e\\makefile_builder\\templates\\wp8_ext_csproj.pyc'
p265
F1426254158.0
sS'c:\\marmalade\\7.6\\s3e\\makefile_builder\\plugins\\VisualStudioEmitter.pyc'
p266
F1426254156.0
sS'c:\\marmalade\\7.6\\s3e\\makefile_builder\\deployment.pyc'
p267
F1426254156.0
sS'c:\\marmalade\\7.6\\s3e\\makefile_builder\\templates\\wp8_vcxproj.pyc'
p268
F1426254158.0
sS'c:\\marmalade\\7.6\\s3e\\makefile_builder\\templates\\win8_vcxproj.pyc'
p269
F1426254158.0
sS'c:\\marmalade\\7.6\\s3e\\makefile_builder\\plugins\\s3e_xcode.pyc'
p270
F1427074427.0905466
sS'c:\\marmalade\\7.6\\s3e\\makefile_builder\\templates\\xcode4_DeployTool.xcscheme'
p271
F1426247824.0
sS'c:\\marmalade\\7.6\\s3e\\makefile_builder\\templates\\wp8_csproj.pyc'
p272
F1426254158.0
sS'c:\\marmalade\\7.6\\s3e\\makefile_builder\\mkb_globals.pyc'
p273
F1426254156.0
sS'c:\\marmalade\\7.6\\s3e\\makefile_builder\\templates\\ws8_csproj.pyc'
p274
F1426254158.0
sS'c:\\marmalade\\7.6\\s3e\\makefile_builder\\templates\\wp81_sln.pyc'
p275
F1426254158.0
sS'c:\\marmalade\\7.6\\s3e\\makefile_builder\\templates\\template.opt'
p276
F1426247824.0
sS'c:\\marmalade\\7.6\\s3e\\makefile_builder\\mkb_main.pyc'
p277
F1426254156.0
sS'c:\\marmalade\\7.6\\s3e\\makefile_builder\\templates\\xcode4.xcscheme'
p278
F1426247824.0
sS'c:\\marmalade\\7.6\\s3e\\makefile_builder\\templates\\wp81_ext_csproj.pyc'
p279
F1426254158.0
sS'c:\\marmalade\\7.6\\s3e\\makefile_builder\\templates\\wp8_sln.pyc'
p280
F1426254158.0
sS'c:\\marmalade\\7.6\\s3e\\makefile_builder\\plugins\\s3e_ws81.pyc'
p281
F1426254156.0
sS'c:\\marmalade\\7.6\\s3e\\makefile_builder\\plugins\\S3EEmitter.pyc'
p282
F1426254156.0
sS'c:\\marmalade\\7.6\\s3e\\makefile_builder\\templates\\win32_vcxproj_filters.pyc'
p283
F1426254158.0
sS'c:\\marmalade\\7.6\\s3e\\makefile_builder\\mkb_option.pyc'
p284
F1426254156.0
sS'c:\\marmalade\\7.6\\s3e\\makefile_builder\\plugins\\s3e_make.pyc'
p285
F1426254156.0
sS'c:\\marmalade\\7.6\\s3e\\makefile_builder\\plugins\\XcodeEmitter.pyc'
p286
F1427074422.6854174
sS'c:\\marmalade\\7.6\\s3e\\makefile_builder\\plugins\\s3e_wp81.pyc'
p287
F1426254156.0
sS'c:\\marmalade\\7.6\\s3e\\makefile_builder\\plugins\\SConsEmitter.pyc'
p288
F1426254156.0
sS'c:\\marmalade\\7.6\\s3e\\makefile_builder\\templates\\scons.pyc'
p289
F1426254158.0
sS'c:\\marmalade\\7.6\\s3e\\makefile_builder\\plugins'
p290
F1427074427.088545
sS'c:\\marmalade\\7.6\\s3e\\makefile_builder\\plugins\\s3e_vc6.pyc'
p291
F1426254156.0
sS'c:\\marmalade\\7.6\\s3e\\makefile_builder\\templates\\vc10_user.pyc'
p292
F1426254158.0
sS'c:\\marmalade\\7.6\\s3e\\makefile_builder\\templates\\MainWindow.xib'
p293
F1426247824.0
sS'c:\\marmalade\\7.6\\s3e\\makefile_builder\\plugins\\XcodeEmitter.py'
p294
F1426247822.0
sS'c:\\marmalade\\7.6\\s3e\\makefile_builder\\templates\\win8_ext_csproj.pyc'
p295
F1426254158.0
sS'c:\\marmalade\\7.6\\s3e\\makefile_builder\\templates\\make.py'
p296
F1426247824.0
sS'c:\\marmalade\\7.6\\s3e\\makefile_builder\\plugins\\linux_scons.pyc'
p297
F1426254156.0
sS'c:\\marmalade\\7.6\\s3e\\makefile_builder\\templates\\wp81_csproj.pyc'
p298
F1426254158.0
sS'c:\\marmalade\\7.6\\s3e\\makefile_builder\\templates\\ws8_vcxproj.pyc'
p299
F1426254158.0
sS'c:\\marmalade\\7.6\\s3e\\makefile_builder\\plugins\\Win8Emitter.pyc'
p300
F1426254156.0
sS'c:\\marmalade\\7.6\\s3e\\makefile_builder\\templates\\win32_vcxproj.pyc'
p301
F1426254158.0
sS'c:\\marmalade\\7.6\\s3e\\makefile_builder\\templates\\ws8_ext_csproj.pyc'
p302
F1426254158.0
sS'c:\\marmalade\\7.6\\s3e\\makefile_builder\\mkb_util.pyc'
p303
F1426254156.0
sS'c:\\marmalade\\7.6\\s3e\\makefile_builder\\templates\\Info.plist'
p304
F1426247824.0
sS'c:\\marmalade\\7.6\\s3e\\makefile_builder\\templates\\template.suo'
p305
F1426247824.0
sS'c:\\marmalade\\7.6\\s3e\\makefile_builder\\templates\\aarch64_linker_script'
p306
F1426247824.0
sS'c:\\marmalade\\7.6\\s3e\\makefile_builder\\templates\\mips_linker_script'
p307
F1426247824.0
sS'c:\\marmalade\\7.6\\s3e\\makefile_builder\\plugins\\java.pyc'
p308
F1426254156.0
sS'c:\\marmalade\\7.6\\s3e\\makefile_builder\\templates\\ws81_ext_csproj.pyc'
p309
F1426254158.0
sS'c:\\marmalade\\7.6\\s3e\\makefile_builder\\templates\\ws8_ext_sln.pyc'
p310
F1426254158.0
sS'c:\\marmalade\\7.6\\s3e\\makefile_builder\\templates\\qmake_user.py'
p311
F1426247824.0
sS'c:\\marmalade\\7.6\\s3e\\makefile_builder\\templates\\rvct_linker_script'
p312
F1426247824.0
sS'c:\\marmalade\\7.6\\s3e\\makefile_builder\\docs'
p313
F1427029138.9980574
sS'c:\\marmalade\\7.6\\s3e\\makefile_builder\\docs\\deployment_options.txt'
p314
F1426247822.0
sS'c:\\marmalade\\7.6\\s3e\\makefile_builder\\docs\\mkb.defines.txt'
p315
F1426247822.0
sS'c:\\marmalade\\7.6\\s3e\\makefile_builder\\templates\\win8_sln.pyc'
p316
F1426254158.0
sS'c:\\marmalade\\7.6\\s3e\\makefile_builder\\templates\\ws81_ext_sln.pyc'
p317
F1426254158.0
sS'c:\\marmalade\\7.6\\s3e\\makefile_builder\\plugins\\wp81_wp81.pyc'
p318
F1426254156.0
sS'c:\\marmalade\\7.6\\s3e\\makefile_builder\\templates\\linker_script'
p319
F1426247824.0
sS'c:\\marmalade\\7.6\\s3e\\makefile_builder\\plugins\\s3e_qmake.pyc'
p320
F1427074424.733877
sS'c:\\marmalade\\7.6\\s3e\\makefile_builder\\plugins\\win32_vc6.pyc'
p321
F1426254156.0
sccopy_reg
_reconstructor
p322
(cmkb_main
MkbFile
p323
c__builtin__
object
p324
Ntp325
Rp326
(dp327
g5
(lp328
sS'target_name'
p329
S'Game01'
p330
sS'current_file'
p331
g131
sS'package_path'
p332
(lp333
sS'post_build'
p334
(lp335
(lp336
S'c:/marmalade/7.6/s3e/tools'
p337
aS'C:\\Marmalade\\7.6\\s3e\\python\\python.exe .\\process_map.py "$(TargetPath)"'
p338
aa(S'c:\\marmalade\\7.6\\s3e\\bin'
p339
S'"s3e_plink" -l "$(TargetPath)" '
p340
g167
tp341
asS'librarys'
p342
(lp343
g322
(cmkb_main
Library
p344
g324
Ntp345
Rp346
(dp347
S'name'
p348
S'vc6_compat.lib'
p349
sS'expand_name'
p350
I00
sS'include_spec_rvct_objs'
p351
(lp352
sS'include_all_objs'
p353
I00
sS'share_arm'
p354
I00
sS'arch'
p355
S'x86'
p356
sS'nodebug'
p357
I00
sg38
Nsbag322
(g344
g324
Ntp358
Rp359
(dp360
g348
S'iwutil'
p361
sg350
I01
sg351
(lp362
sg353
Nsg354
Nsg355
Nsg357
I00
sg38
Nsbag322
(g344
g324
Ntp363
Rp364
(dp365
g348
S'jpeg'
p366
sg350
I01
sg351
g362
sg353
Nsg354
Nsg355
Nsg357
I00
sg38
Nsbag322
(g344
g324
Ntp367
Rp368
(dp369
g348
S'z'
p370
sg350
I01
sg351
g362
sg353
Nsg354
Nsg355
Nsg357
I00
sg38
Nsbag322
(g344
g324
Ntp371
Rp372
(dp373
g348
S'png'
p374
sg350
I01
sg351
g362
sg353
Nsg354
Nsg355
Nsg357
I00
sg38
Nsbag322
(g344
g324
Ntp375
Rp376
(dp377
g348
S'ATI_Compress_MT_VC7.lib'
p378
sg350
I00
sg351
g362
sg353
Nsg354
Nsg355
S'x86'
p379
sg357
I00
sg38
Nsbag322
(g344
g324
Ntp380
Rp381
(dp382
g348
S'iwgx'
p383
sg350
I01
sg351
g362
sg353
Nsg354
Nsg355
Nsg357
I00
sg38
Nsbag322
(g344
g324
Ntp384
Rp385
(dp386
g348
S'iwgl'
p387
sg350
I01
sg351
g362
sg353
Nsg354
Nsg355
Nsg357
I00
sg38
Nsbag322
(g344
g324
Ntp388
Rp389
(dp390
g348
S'iwgeom'
p391
sg350
I01
sg351
g362
sg353
Nsg354
Nsg355
Nsg357
I00
sg38
Nsbag322
(g344
g324
Ntp392
Rp393
(dp394
g348
S'iwresmanager'
p395
sg350
I01
sg351
g362
sg353
Nsg354
Nsg355
Nsg357
I00
sg38
Nsbag322
(g344
g324
Ntp396
Rp397
(dp398
g348
S'iw2d'
p399
sg350
I01
sg351
g362
sg353
Nsg354
Nsg355
Nsg357
I00
sg38
Nsbag322
(g344
g324
Ntp400
Rp401
(dp402
g348
S'iwgxfont'
p403
sg350
I01
sg351
g362
sg353
Nsg354
Nsg355
Nsg357
I00
sg38
Nsbag322
(g344
g324
Ntp404
Rp405
(dp406
g348
S'tiniconv'
p407
sg350
I01
sg351
g362
sg353
Nsg354
Nsg355
Nsg357
I00
sg38
Nsbag322
(g344
g324
Ntp408
Rp409
(dp410
g348
S's3e_cpp'
p411
sg350
I01
sg351
g352
sg353
I00
sg354
I00
sg355
Nsg357
I00
sg38
Nsbag322
(g344
g324
Ntp412
Rp413
(dp414
g348
S's3e'
p415
sg350
I01
sg351
(lp416
S'iwcrt.o'
p417
asg353
I00
sg354
I00
sg355
Nsg357
I00
sg38
Nsbag322
(g344
g324
Ntp418
Rp419
(dp420
g348
g53
sg350
I01
sg351
g352
sg353
I00
sg354
I00
sg355
S'x86'
p421
sg357
I01
sg38
Nsbag322
(g344
g324
Ntp422
Rp423
(dp424
g348
g53
sg350
I01
sg351
g352
sg353
I00
sg354
I00
sg355
S'!x86'
p425
sg357
I01
sg38
Nsbag322
(g344
g324
Ntp426
Rp427
(dp428
g348
S'stdc++'
p429
sg350
I00
sg351
g352
sg353
I00
sg354
I00
sg355
S'mips'
p430
sg357
I00
sg38
Nsbag322
(g344
g324
Ntp431
Rp432
(dp433
g348
S'c'
p434
sg350
I00
sg351
g352
sg353
I00
sg354
I00
sg355
S'mips'
p435
sg357
I00
sg38
Nsbag322
(g344
g324
Ntp436
Rp437
(dp438
g348
S'm'
p439
sg350
I00
sg351
g352
sg353
I00
sg354
I00
sg355
S'mips'
p440
sg357
I00
sg38
Nsbag322
(g344
g324
Ntp441
Rp442
(dp443
g348
S'gcc'
p444
sg350
I00
sg351
g352
sg353
I00
sg354
I00
sg355
S'mips'
p445
sg357
I00
sg38
Nsbag322
(g344
g324
Ntp446
Rp447
(dp448
g348
S'supc++'
p449
sg350
I00
sg351
g352
sg353
I00
sg354
I00
sg355
S'gcc_x86_android'
p450
sg357
I00
sg38
Nsbag322
(g344
g324
Ntp451
Rp452
(dp453
g348
g434
sg350
I00
sg351
g352
sg353
I00
sg354
I00
sg355
S'gcc_x86_android'
p454
sg357
I00
sg38
Nsbag322
(g344
g324
Ntp455
Rp456
(dp457
g348
g439
sg350
I00
sg351
g352
sg353
I00
sg354
I00
sg355
S'gcc_x86_android'
p458
sg357
I00
sg38
Nsbag322
(g344
g324
Ntp459
Rp460
(dp461
g348
g444
sg350
I00
sg351
g352
sg353
I00
sg354
I00
sg355
S'gcc_x86_android'
p462
sg357
I00
sg38
Nsbag322
(g344
g324
Ntp463
Rp464
(dp465
g348
S'dl'
p466
sg350
I00
sg351
g352
sg353
I00
sg354
I00
sg355
S'gcc_x86_android'
p467
sg357
I00
sg38
NsbasS'library_paths'
p468
(lp469
g322
(cmkb_main
LibraryPath
p470
g324
Ntp471
Rp472
(dp473
S'expand_path'
p474
I01
sg348
S'c:/marmalade/7.6/modules/iwutil'
p475
sbag322
(g470
g324
Ntp476
Rp477
(dp478
g474
I01
sg348
S'c:/marmalade/7.6/modules/third_party/libjpeg'
p479
sbag322
(g470
g324
Ntp480
Rp481
(dp482
g474
I01
sg348
S'c:/marmalade/7.6/modules/third_party/zlib'
p483
sbag322
(g470
g324
Ntp484
Rp485
(dp486
g474
I01
sg348
S'c:/marmalade/7.6/modules/third_party/libpng'
p487
sbag322
(g470
g324
Ntp488
Rp489
(dp490
g474
I00
sg348
S'c:/marmalade/7.6/modules/iwgx/atitools'
p491
sbag322
(g470
g324
Ntp492
Rp493
(dp494
g474
I01
sg348
S'c:/marmalade/7.6/modules/iwgx'
p495
sbag322
(g470
g324
Ntp496
Rp497
(dp498
g474
I01
sg348
S'c:/marmalade/7.6/modules/iwgl'
p499
sbag322
(g470
g324
Ntp500
Rp501
(dp502
g474
I01
sg348
S'c:/marmalade/7.6/modules/iwgeom'
p503
sbag322
(g470
g324
Ntp504
Rp505
(dp506
g474
I01
sg348
S'c:/marmalade/7.6/modules/iwresmanager'
p507
sbag322
(g470
g324
Ntp508
Rp509
(dp510
g474
I01
sg348
S'c:/marmalade/7.6/modules/iw2d'
p511
sbag322
(g470
g324
Ntp512
Rp513
(dp514
g474
I01
sg348
S'c:/marmalade/7.6/modules/iwgxfont'
p515
sbag322
(g470
g324
Ntp516
Rp517
(dp518
g474
I01
sg348
S'c:/marmalade/7.6/modules/third_party/tiniconv'
p519
sbag322
(g470
g324
Ntp520
Rp521
(dp522
g474
I01
sg348
S'c:/marmalade/7.6/s3e'
p523
sbasS'macros'
p524
(dp525
S'IW_USE_CALLSTACK'
p526
NsS'IW_SDK'
p527
NsS'I3D_PLATFORM_S3E'
p528
NsS'__S3E__'
p529
NsS'IW_MKF_LIBJPEG'
p530
NsS'I3D_OS_S3E'
p531
NsS'IW_MKF_PVRTEXTOOL'
p532
NsS'IW_MKF_TINICONV'
p533
NsS'IW_APP_VERSION'
p534
S'"1.0"'
p535
sS'IW_MKF_IWRESMANAGER'
p536
NsS'IW_MKF_IWUTIL'
p537
NsS'IW_PLATFORM_S3E'
p538
NsS'IW_ASSERTION_CHANNEL_2D'
p539
S'1'
p540
sS'IW_APP_NAME'
p541
S'"Game01"'
p542
sS'IW_MKF_S3E_DEFAULT'
p543
NsS'IW_MKF_IWGXFONT'
p544
NsS'IW_MKF_ZLIB'
p545
NsS'IW_MKF_IWGX'
p546
NsS'IW_USE_ASSERTIONS'
p547
NsS'_CRT_SECURE_NO_DEPRECATE'
p548
NsS'IW_MKF_IWGL'
p549
NsS'IW_MKF_LIBPNG'
p550
NsS'IW_DEBUG'
p551
NsS'IW_USE_TRACING'
p552
NsS'IW_TRACE_CHANNEL_PVRTEXTOOL'
p553
g540
sS'S3E_INCLUDE_LEGACY'
p554
NsS'IW_TRACE_CHANNEL_PVRTEXTOOL_VERBOSE'
p555
S'2'
p556
sS'IW_MKF_IW2D'
p557
NsS'IW_MKF_IWGEOM'
p558
NsS'IW_ASSERTION_CHANNEL_PVRTEXTOOL'
p559
g540
ssS'done_warnings'
p560
(dp561
sS'subprojects'
p562
(dp563
g194
S'iwgl'
p564
sg193
S'iwgx'
p565
sg199
S'iwgxfont'
p566
sg195
S'iwgeom'
p567
sg200
S'tiniconv'
p568
sg190
S'libjpeg'
p569
sg196
S'iwresmanager'
p570
sg189
S'iwutil'
p571
sg197
S'PVRTexTool'
p572
sg198
S'iw2d'
p573
sg191
S'libpng'
p574
sg188
S's3e-default.mkf'
p575
sg192
S'zlib'
p576
ssS'deployments'
p577
(dp578
S'Default'
p579
g322
(cdeployment
Deployment
p580
g324
Ntp581
Rp582
(dp583
S'got_version'
p584
I0
sS'assets'
p585
g579
sS'mkb'
p586
g326
sS'target'
p587
Nsg355
(lp588
sS'options'
p589
(dp590
S'iphone-link-lib'
p591
(lp592
sS'game-icf'
p593
NsS'android-tm'
p594
NsS'winmobile-icon32'
p595
NsS'ws8-logo-image150x150'
p596
NsS'wp81-logo-image150x150'
p597
NsS'android-keystore'
p598
NsS'osx-ext-dll'
p599
(lp600
S'c:/marmalade/7.6/extensions/pvrtextool/lib/osx/libPVRTexTool.dylib'
p601
asS'iphone-provisioning-profile'
p602
NsS'ws8-splash-screen-image620x300'
p603
NsS'wp81-extra-pri'
p604
(lp605
sS'ws8-ext-capabilities'
p606
(lp607
sS'android-icon-hdpi'
p608
NsS'iphone-ipad-only'
p609
NsS'iphone-splash-full-orient'
p610
NsS'wp8-tile-fliptemplate-supports-large'
p611
NsS'iphone-show-status-bar'
p612
NsS'roku-requires-mkv'
p613
NsS'long-caption'
p614
NsS'android-pkgname'
p615
NsS'wp81-publisher-display-name'
p616
NsS'blackberry-permissions-read-device-identifying-information'
p617
NsS'ws81-certificate-end-date'
p618
NsS'psp-dlgcontentid'
p619
NsS'iphone-minimum-ios-version'
p620
NsS'target-folder'
p621
NsS'tizen-dist1-CA-path'
p622
NsS'symbian-icon2-format'
p623
NsS'tizen-author-key'
p624
NsS'firefoxos-icon-128X128'
p625
NsS'iphone-region'
p626
NsS'uiq3-icon3-mask'
p627
NsS'brew-encoding'
p628
NsS'android-x86'
p629
NsS'nds-initialcode'
p630
NsS'iphone-persistent-wifi'
p631
NsS'psp-snd0'
p632
NsS'roku-icon-focus-hd'
p633
NsS'osx-appid'
p634
NsS'winmobile-install-folder'
p635
NsS'android-external-res'
p636
(lp637
sS'ws8-product-version'
p638
NsS'brew-priviledges'
p639
NsS'iphone-info-plist-override'
p640
NsS'iphone-icon-ipad'
p641
NsS'iphone-skip-icon-generation'
p642
NsS'roku-hidden'
p643
NsS'psp-titlename'
p644
NsS'wp81-product-version'
p645
NsS'symbian-icon1-mask'
p646
NsS'psp-parentallevel'
p647
NsS'iphone-launch-storyboard'
p648
NsS'splashscreen-use-all'
p649
NsS'wp8-author'
p650
NsS'symbian-disable-ecompxl'
p651
NsS'splashscreen-auto-onblack'
p652
NsS'iphone-icon-dir'
p653
NsS'iphone-icon-extra'
p654
NsS'win32-ext-dll'
p655
(lp656
S'c:/marmalade/7.6/extensions/pvrtextool/lib/win32/PVRTexTool.dll'
p657
asS'iphone-development-key'
p658
NsS'winmobile-icon48'
p659
NsS'android-unsigned'
p660
NsS'osx-appstore-category'
p661
NsS'version-revision'
p662
NsS'roku-icon-focus-sd'
p663
NsS'ws81-product-version'
p664
NsS'winmobile-png90'
p665
NsS'iphone-icon-ipad-high-res'
p666
NsS'iphone-disable-ipad'
p667
NsS'ws81-splash-screen-background'
p668
NsS'wp8-ext-capabilities'
p669
(lp670
sS'brew-icon-large'
p671
NsS'symbian-icon1-mask-black'
p672
NsS'ws8-extra-res'
p673
(lp674
sS'iphone-bundle-localisations'
p675
NsS'winmobile-png60'
p676
NsS'blackberry-permissions-access-shared'
p677
NsS'blackberry-author'
p678
NsS'android-icon-xxxhdpi'
p679
NsS'olddeploytoolstyle'
p680
NsS'android_icon_gallery'
p681
NsS'wp81-splash-screen-background'
p682
NsS'winmobile-cab-compress'
p683
NsS'iphone-info-plist'
p684
NsS'ws81-ext-managed-dll'
p685
(lp686
sS'playbook-cskpass'
p687
NsS'win32-icon'
p688
NsS'symbian-key'
p689
NsS'app-icf'
p690
NsS'blackberry-storepass'
p691
NsS'wp8-tile-fliptemplate-back-title'
p692
NsS'brew-compress-loader'
p693
NsS'iphone-testflight'
p694
NsS'win32-pref-windowposy'
p695
NsS'win32-pref-windowposx'
p696
NsS'roku-requires-audiometadata'
p697
NsS'wp8-exclude-low-mem'
p698
NsS'android-min-sdk-version'
p699
NsS'wp8-tile-fliptemplate-title'
p700
NsS'iphone-icon-ipad-search-high-res'
p701
NsS'iphone-link-libdir'
p702
(lp703
sS'wp81-ext-capabilities'
p704
(lp705
sS'blackberry-permissions-read-geolocation'
p706
NsS'ws81-ext-device-capabilities'
p707
(lp708
sS'tizen-signed'
p709
NsS'android-extra-application-manifest'
p710
(lp711
sS'ws8-ext-native-dll'
p712
(lp713
sS'symbian-icon2-mask'
p714
NsS'iphone-launch-extra'
p715
NsS'webos-memory'
p716
NsS'android-keypass'
p717
NsS'name'
p718
NsS'uiq3-icon2-format'
p719
NsS'roku-splash-screen-sd'
p720
NsS'auto-derbh'
p721
NsS'roku-icon-side-sd'
p722
NsS'android-external-assets'
p723
(lp724
sS'nds-publicsavedatasize'
p725
NsS'splashscreen'
p726
NsS'brew-mif'
p727
NsS'iphone-icon-settings-high-res'
p728
NsS'android-manifest'
p729
NsS'ws81-splash-screen-image620x300'
p730
NsS'wp81-product-name'
p731
NsS's3e-compression'
p732
NsS'tizen-author-password'
p733
NsS'wp8-tile-fliptemplate-back-content'
p734
NsS'blackberry-extra-descriptor'
p735
(lp736
sS'android-java-source-version'
p737
NsS'symbian-icon1'
p738
NsS'symbian-icon2'
p739
NsS'nds-makercode'
p740
NsS'android-extra-styles-file'
p741
NsS'android-ext-target-sdk-version'
p742
(lp743
sS'wp81-publisher-id'
p744
NsS'nds-bannertitle-jp'
p745
NsS'wp81-logo-image44x44'
p746
NsS'osx-sign-for-store'
p747
NsS'symbian7-uid'
p748
NsS'wp8-tile-fliptemplate-large-back-content'
p749
NsS'wp81-phone-publisher-id'
p750
NsS'nds-bannertitle-cn'
p751
NsS'iphone-distribution-key'
p752
NsS'android-icon-gallery'
p753
NsS'blackberry-keystore'
p754
NsS'iphone-nosign'
p755
NsS'caption'
p756
NsS'android-extra-manifest'
p757
(lp758
sS'wp81-ext-sdk-ref'
p759
(lp760
sS'android-icon-xxhdpi'
p761
NsS'version-minor'
p762
NsS'iphone-skip-launch-generation'
p763
NsS'iphone-link-libdirs'
p764
(lp765
sS'iphone-icon-large'
p766
NsS'symbian-keypwd'
p767
NsS'symbian8-uid'
p768
NsS'symbian-cert-key'
p769
NsS'winmobile-ampd-part-number'
p770
NsS'arch'
p771
NsS'nds-romheadertemplate'
p772
NsS'webos-icon'
p773
NsS'wp81-ext-device-capabilities'
p774
(lp775
sS'psp-dlgprotectdocument'
p776
NsS'ws8-splash-screen-background'
p777
NsS'android-icon-mdpi'
p778
NsS'android-sdk-build-tools-version'
p779
NsS'nds-icon'
p780
NsS'ws8-custom-manifest-fill'
p781
NsS'iphone-development-cert'
p782
NsS'and'
p783
NsS'symbian-icon2-mask-black'
p784
NsS'blackberry-phone-icon'
p785
NsS'iphone-enable-4inch-retina'
p786
NsS'ws8-custom-manifest'
p787
NsS'version-major'
p788
NsS'wp8-genre-isgame'
p789
NsS'uiq3-uid'
p790
NsS'iphone-splash-retina-generate'
p791
NsS'tizen-hw-acceleration'
p792
NsS'iphone_bundle_localisations'
p793
NsS'tizen-dist1-key'
p794
NsS'wp81-custom-manifest-fill'
p795
NsS'wp8-custom-manifest'
p796
NsS'nds-bannertitle-ge'
p797
NsS'iphone-sign-for-distribution'
p798
NsS'wp8-tile-fliptemplate-medium-back-image'
p799
NsS'wp8-publisher-id'
p800
NsS'icon'
p801
NsS'android-target-sdk-version'
p802
NsS'wp8-exclude-wxga'
p803
NsS'wp81-identity-name'
p804
NsS'uiq3-icon2-mask'
p805
NsS'iphone-splashscreen-portrait'
p806
NsS'iphone-icon-high-res'
p807
NsS'ws81-distribution-pfx-password'
p808
NsS'playbook-author'
p809
NsS'android-icon-xhdpi'
p810
NsS'linux-ext-lib'
p811
(lp812
sS'blackberry-permissions-access-internet'
p813
NsS'wp8-exclude-720p'
p814
NsS'lgtv-use-drm'
p815
NsS'symbian-platsecflags'
p816
NsS'ws8-description'
p817
NsS'blackberry-playbook-icon'
p818
NsS'copyright'
p819
NsS'ws8-distribution-pfx-password'
p820
NsS'win32-gles-directory'
p821
NsS'version'
p822
NsS'android-ext-min-sdk-version'
p823
(lp824
sS'iphone-uiviewcontroller-based-status-bar'
p825
NsS'ws81-logo-image150x150'
p826
NsS'osx-signing-identity-app'
p827
NsS'tizen-project-url'
p828
NsS'symbian-icon-svg'
p829
NsS'android-aliasname'
p830
NsS'psp-dlgmanual'
p831
NsS'brew-uid'
p832
NsS'symbian-locationsupport'
p833
NsS'wp81-logo-image50x50'
p834
NsS'ws8-ext-managed-dll'
p835
(lp836
sS'nds-bannertitle-it'
p837
NsS'ws81-custom-manifest-fill'
p838
NsS'ws8-ext-sdk-manifest-part'
p839
(lp840
sS'uiq3-icon1-mask'
p841
NsS'winmobile-icon16'
p842
NsS'ws8-product-name'
p843
NsS'blackberry-cskpass'
p844
NsS'winmobile-start-menu-folder'
p845
NsS'brew-clsid'
p846
NsS'roku-requires-bluetooth'
p847
NsS'iphone-default-development-profile'
p848
NsS'ws8-ext-device-capabilities'
p849
(lp850
sS'blackberry-permissions-use-camera'
p851
NsS'ws81-extra-pri'
p852
(lp853
sS'iphone-prerendered-icon'
p854
NsS'iphone-appid'
p855
NsS'ws8-identity-name'
p856
NsS'tizen-dist2-CA-path'
p857
NsS'android-external-jars'
p858
(lp859
sS'winmobile-icon64'
p860
NsS'blackberry-permissions-post-notification'
p861
NsS'winmobile-setup-dll'
p862
NsS'firefoxos-manifest'
p863
NsS'win8-winrt-extra-res'
p864
(lp865
sS'wp81-ext-sdk-manifest-part'
p866
(lp867
sS'symbian9-uid'
p868
NsS'iphone-icon-ipad-ios7'
p869
NsS'winmobile-trace-file'
p870
NsS'roku-splash-color'
p871
NsS'psp-appversion'
p872
NsS'android-java-target-version'
p873
NsS'ws8-publisher-id'
p874
NsS'android-supports-gl-texture'
p875
(lp876
sS'winmobile-png45'
p877
NsS'wp81-extra-res'
p878
(lp879
sS'android-storepass'
p880
NsS'osx-signing-identity-inst'
p881
NsS'android-custom-activity'
p882
NsS'psp-discversion'
p883
NsS'wp81-ext-managed-dll'
p884
(lp885
sS'psp-copyright'
p886
NsS'embed-icf'
p887
NsS'tizen-manifest'
p888
NsS'osx-icon'
p889
NsS'webos-appinfo'
p890
NsS'psp-dlghealthwarning'
p891
NsS'webos-appid'
p892
NsS'roku-icon-side-hd'
p893
NsS'iphone-icon-ipad-search-high-res-ios7'
p894
NsS'iphone-extra-plist'
p895
(lp896
sS'ws81-ext-sdk-manifest-part'
p897
(lp898
sS'loader_name_prefix'
p899
NsS'iphone-launch-dir'
p900
NsS'nds-titlename'
p901
NsS'ws81-logo-image50x50'
p902
NsS'wp81-custom-manifest'
p903
NsS'osx-entitlements-plist'
p904
NsS'psp-dlgicon0'
p905
NsS'winmobile-nouninstall'
p906
NsS'psp-discid'
p907
NsS'tizen-dist2-password'
p908
NsS'ws8-ext-sdk-ref'
p909
(lp910
sS'iphone-extra-string'
p911
(lp912
sS'version-string'
p913
NsS'iphone-icon-high-res-ios7'
p914
NsS'ws8-certificate-end-date'
p915
NsS'tizen-so'
p916
(lp917
sS'wp8-tile-fliptemplate-small-image'
p918
NsS'playbook-authorid'
p919
NsS'iphone-signing-identity'
p920
NsS'roku-persist-quota'
p921
NsS'nds-bannertitle-fr'
p922
NsS'ws8-distribution-pfx'
p923
NsS'ws8-publisher-display-name'
p924
NsS'brew-icon-small'
p925
NsS'psp-dlgpic2'
p926
NsS'psp-dlgpic0'
p927
NsS'psp-pic0'
p928
NsS'psp-pic1'
p929
NsS'win32-pref-windowtitle'
p930
NsS'psp-icon0'
p931
NsS'psp-icon1'
p932
NsS'ws81-identity-name'
p933
NsS'winmobile-icon'
p934
NsS'iphone-no-splash'
p935
NsS'iphone-splash'
p936
NsS'iphone-app-fonts'
p937
NsS'wp8-ext-native-dll'
p938
(lp939
sS'wp81-splash-screen-image480x800'
p940
NsS'ws81-distribution-cer'
p941
NsS'iphone-backgroundmode-audio'
p942
NsS'uiq3-icon2'
p943
NsS'uiq3-icon3'
p944
NsS'uiq3-icon1'
p945
NsS'uiq3-icon1-format'
p946
NsS'ws8-logo-image50x50'
p947
NsS'iphone-icon-ipad-search'
p948
NsS'symbian-run-on-install'
p949
NsS'wp81-description'
p950
NsS'ws81-publisher-display-name'
p951
NsS'firefoxos-xulrunner'
p952
NsS'symbian-soundrecordsupport'
p953
NsS'nds-bannertitle-sp'
p954
NsS'psp-producer'
p955
NsS'iphone-apple-wwdr-cert'
p956
NsS'android-icon-nonstandard'
p957
NsS'win32-pref-processtitle'
p958
NsS'nds-bannertitle-hn'
p959
NsS'tizen-dist2-key'
p960
NsS'brew-depends'
p961
NsS'ws81-custom-manifest'
p962
NsS'iphone-allow-launch-rotation'
p963
NsS'iphone-icon-ipad-search-ios7'
p964
NsS'brew-icon-medium'
p965
NsS'iphone-bundle-url-name'
p966
NsS'wp8-tile-fliptemplate-large-front-image'
p967
NsS'tizen-dist2-CA-root-path'
p968
NsS'ws81-description'
p969
NsS'uiq3-icon3-format'
p970
NsS'ws81-logo-image30x30'
p971
NsS'win8-phone-extra-res'
p972
(lp973
sS'iphone-signing-host'
p974
NsS'tizen-icon'
p975
NsS'osx-info-plist'
p976
NsS'symbian-icon1-format'
p977
NsS'ws81-distribution-pfx'
p978
NsS'blackberry-authorid'
p979
NsS'ws81-publisher-id'
p980
NsS'win8-store-extra-res'
p981
(lp982
sS'wp8-description'
p983
NsS'iphone-link-opts'
p984
(lp985
sS'ws81-ext-sdk-ref'
p986
(lp987
sS'roku-splash-min-time'
p988
NsS'wp8-tile-fliptemplate-medium-front-image'
p989
NsS'iphone-disable-launch-images'
p990
NsS'android-sdk-platform-version'
p991
NsS'provider'
p992
NsS'playbook-keystore'
p993
NsS'tizen-appid'
p994
NsS'wp8-extra-res'
p995
(lp996
sS'symbian-osexecsupport'
p997
NsS'android-install-location'
p998
NsS'nds-privatesavedatasize'
p999
NsS'iphone-disable-testflight'
p1000
NsS'playbook-storepass'
p1001
NsS'android-icon-ldpi'
p1002
NsS'manufacturer'
p1003
NsS'itunes-artwork'
p1004
NsS'iphone-extra-sections'
p1005
NsS'ws81-product-name'
p1006
NsS'ws81-ext-native-dll'
p1007
(lp1008
sS'ws8-extra-pri'
p1009
(lp1010
sS'wp8-product-id'
p1011
NsS'ws8-logo-image30x30'
p1012
NsS'wp8-ext-managed-dll'
p1013
(lp1014
sS'iphone-splashscreen-landscape'
p1015
NsS'symbian-maxheapsize'
p1016
NsS'android-extra-packages'
p1017
(lp1018
sS'priv-sign-key'
p1019
NsS'networking'
p1020
NsS'android-icon'
p1021
NsS'iphone-icon-settings'
p1022
NsS'wp81-phone-product-id'
p1023
NsS'firefoxos-icon-60X60'
p1024
NsS'iphone-distribution-cert'
p1025
NsS'android_extra_strings'
p1026
NsS'nds-bannertitle-en'
p1027
NsS'blackberry-permissions-record-audio'
p1028
NsS'android-so'
p1029
(lp1030
sS'wp8-higher-mem'
p1031
NsS'wp8-ext-sdk-ref'
p1032
(lp1033
sS'wp8-fast-resume-mode'
p1034
NsS'roku-splash-screen-hd'
p1035
NsS'iphone-bundle-url-schemes'
p1036
NsS'roku-screensaver-private'
p1037
NsS'osx-extra-res'
p1038
(lp1039
sS'ws81-extra-res'
p1040
(lp1041
sS'playbook-icon'
p1042
NsS'uid'
p1043
NsS'pkguid-as-uid'
p1044
NsS'wp81-ext-native-dll'
p1045
(lp1046
sS'tizen-dist1-password'
p1047
NsS'roku-screensaver-title'
p1048
NsS'osx-minimum-osx-version'
p1049
NsS'symbian-cert'
p1050
NsS'iphone-icon'
p1051
NsS'ws81-ext-capabilities'
p1052
(lp1053
sS'ws8-distribution-cer'
p1054
NsS'playbook-access-shared'
p1055
NsS'iphone-icon-ipad-high-res-ios7'
p1056
NsS'iphone-link-libs'
p1057
(lp1058
sS'wp8-exclude-wvga'
p1059
NsS'assets'
p1060
NsS'wp8-tile-fliptemplate-large-back-image'
p1061
NsS'wp8-custom-manifest-fill'
p1062
NsS'pub-sign-key'
p1063
NsS'android-extra-strings'
p1064
NsS'tizen-author-CA-path'
p1065
Nssg348
g579
sbssS'platform'
p1066
S'S3E'
p1067
sg68
S'1.0'
p1068
sS'arcade_platform'
p1069
g4
sS'extensions'
p1070
(dp1071
sS'source_groups_tree'
p1072
(dp1073
S'(libpng)'
p1074
(dp1075
S'h'
p1076
(dp1077
S'c:/marmalade/7.6/modules/third_party/libpng/h/png.h'
p1078
(lp1079
I1
a(dp1080
asS'c:/marmalade/7.6/modules/third_party/libpng/h/pngconf.h'
p1081
(lp1082
I1
ag1080
assS'c:/marmalade/7.6/modules/third_party/libpng/libpng.mkf'
p1083
(lp1084
I1
a(dp1085
assS'(libjpeg)'
p1086
(dp1087
g1076
(dp1088
S'c:/marmalade/7.6/modules/third_party/libjpeg/h/jpeglib.h'
p1089
(lp1090
I1
a(dp1091
asS'c:/marmalade/7.6/modules/third_party/libjpeg/h/transupp.h'
p1092
(lp1093
I1
ag1091
asS'c:/marmalade/7.6/modules/third_party/libjpeg/h/jchuff.h'
p1094
(lp1095
I1
ag1091
asS'c:/marmalade/7.6/modules/third_party/libjpeg/h/jerror.h'
p1096
(lp1097
I1
ag1091
asS'c:/marmalade/7.6/modules/third_party/libjpeg/h/jconfig.h'
p1098
(lp1099
I1
ag1091
asS'c:/marmalade/7.6/modules/third_party/libjpeg/h/jpegint.h'
p1100
(lp1101
I1
ag1091
asS'c:/marmalade/7.6/modules/third_party/libjpeg/h/jinclude.h'
p1102
(lp1103
I1
ag1091
asS'c:/marmalade/7.6/modules/third_party/libjpeg/h/jdhuff.h'
p1104
(lp1105
I1
ag1091
asS'c:/marmalade/7.6/modules/third_party/libjpeg/h/cderror.h'
p1106
(lp1107
I1
ag1091
asS'c:/marmalade/7.6/modules/third_party/libjpeg/h/jversion.h'
p1108
(lp1109
I1
ag1091
asS'c:/marmalade/7.6/modules/third_party/libjpeg/h/cdjpeg.h'
p1110
(lp1111
I1
ag1091
asS'c:/marmalade/7.6/modules/third_party/libjpeg/h/jmemsys.h'
p1112
(lp1113
I1
ag1091
asS'c:/marmalade/7.6/modules/third_party/libjpeg/h/jdct.h'
p1114
(lp1115
I1
ag1091
asS'c:/marmalade/7.6/modules/third_party/libjpeg/h/jmorecfg.h'
p1116
(lp1117
I1
ag1091
assS'c:/marmalade/7.6/modules/third_party/libjpeg/libjpeg.mkf'
p1118
(lp1119
I1
a(dp1120
assS'(tiniconv)'
p1121
(dp1122
S'c:/marmalade/7.6/modules/third_party/tiniconv/source/tiniconv.h'
p1123
(lp1124
I1
a(dp1125
asS'c:/marmalade/7.6/modules/third_party/tiniconv/source/tiniconv_int.h'
p1126
(lp1127
I1
ag1125
asS'c:/marmalade/7.6/modules/third_party/tiniconv/tiniconv.mkf'
p1128
(lp1129
I1
a(dp1130
assS'c:/Users/Sean/Documents/C++/Mormalade/Game01/Game01.cpp'
p1131
(lp1132
I1
a(dp1133
asS'Extensions'
p1134
(dp1135
S'PVRTexTool'
p1136
(dp1137
S'interface'
p1138
(dp1139
S'c:/marmalade/7.6/extensions/pvrtextool/interface/PVRTexTool.defines.txt'
p1140
(lp1141
I1
a(dp1142
asS'c:/marmalade/7.6/extensions/pvrtextool/interface/PVRTexTool_interface.cpp'
p1143
(lp1144
I1
ag1142
assS'c:/marmalade/7.6/extensions/pvrtextool/pvrtextool.mkf'
p1145
(lp1146
I1
a(dp1147
asS'c:/marmalade/7.6/extensions/pvrtextool/h/PVRTexTool.h'
p1148
(lp1149
I1
ag1142
asssS"'Marmalade Studio'"
p1150
(dp1151
S'iwgl'
p1152
(dp1153
S'c:/marmalade/7.6/modules/iwgl/h/IwGL.h'
p1154
(lp1155
I1
a(dp1156
asS'c:/marmalade/7.6/modules/iwgl/iwgl.mkf'
p1157
(lp1158
I1
a(dp1159
asS'c:/marmalade/7.6/modules/iwgl/docs/iwgl.config.txt'
p1160
(lp1161
I1
ag1156
asS'c:/marmalade/7.6/modules/iwgl/h/IwGLExt.h'
p1162
(lp1163
I1
ag1156
assS'iw2d'
p1164
(dp1165
S'c:/marmalade/7.6/modules/iw2d/iw2d.mkf'
p1166
(lp1167
I1
a(dp1168
asS'c:/marmalade/7.6/modules/iw2d/docs/iw2d_public.defines.txt'
p1169
(lp1170
I1
a(dp1171
asS'c:/marmalade/7.6/modules/iw2d/h/Iw2D.h'
p1172
(lp1173
I1
ag1171
asS'c:/marmalade/7.6/modules/iw2d/docs/iw2d.config.txt'
p1174
(lp1175
I1
ag1171
assS'iwgxfont'
p1176
(dp1177
S'c:/marmalade/7.6/modules/iwgxfont/h/IwGxFontPreparedData.h'
p1178
(lp1179
I1
a(dp1180
asS'c:/marmalade/7.6/modules/iwgxfont/h/IwGxFontState.h'
p1181
(lp1182
I1
ag1180
asS'c:/marmalade/7.6/modules/iwgxfont/iwgxfont.mkf'
p1183
(lp1184
I1
a(dp1185
asS'c:/marmalade/7.6/modules/iwgxfont/h/IwGxFontTypes.h'
p1186
(lp1187
I1
ag1180
asS'c:/marmalade/7.6/modules/iwgxfont/h/IwGxFontContainer.h'
p1188
(lp1189
I1
ag1180
asS'c:/marmalade/7.6/modules/iwgxfont/docs/iwgxfont_public.defines.txt'
p1190
(lp1191
I1
ag1180
asS'c:/marmalade/7.6/modules/iwgxfont/h/IwGxFont.h'
p1192
(lp1193
I1
ag1180
asS'c:/marmalade/7.6/modules/iwgxfont/h/IwGxFontGlyph.h'
p1194
(lp1195
I1
ag1180
asS'c:/marmalade/7.6/modules/iwgxfont/docs/iwgxfont.config.txt'
p1196
(lp1197
I1
ag1180
assS'iwgeom'
p1198
(dp1199
S'c:/marmalade/7.6/modules/iwgeom/h/IwGeomSVec3.h'
p1200
(lp1201
I1
a(dp1202
asS'c:/marmalade/7.6/modules/iwgeom/h/IwGeomFPlane.h'
p1203
(lp1204
I1
ag1202
asS'c:/marmalade/7.6/modules/iwgeom/h/IwGeomPlane.h'
p1205
(lp1206
I1
ag1202
asS'c:/marmalade/7.6/modules/iwgeom/h/IwGeomSVec2.h'
p1207
(lp1208
I1
ag1202
asS'c:/marmalade/7.6/modules/iwgeom/h/IwGeomVec3.h'
p1209
(lp1210
I1
ag1202
asS'c:/marmalade/7.6/modules/iwgeom/h/IwGeomMat2D.h'
p1211
(lp1212
I1
ag1202
asS'c:/marmalade/7.6/modules/iwgeom/h/IwGeomVec2.h'
p1213
(lp1214
I1
ag1202
asS'c:/marmalade/7.6/modules/iwgeom/h/IwGeomSqrt.h'
p1215
(lp1216
I1
ag1202
asS'c:/marmalade/7.6/modules/iwgeom/h/IwGeomQuat.h'
p1217
(lp1218
I1
ag1202
asS'c:/marmalade/7.6/modules/iwgeom/h/IwGeomMat.h.tpl'
p1219
(lp1220
I1
ag1202
asS'c:/marmalade/7.6/modules/iwgeom/h/IwGeomVec4.h'
p1221
(lp1222
I1
ag1202
asS'c:/marmalade/7.6/modules/iwgeom/docs/iwgeom.config.txt'
p1223
(lp1224
I1
ag1202
asS'c:/marmalade/7.6/modules/iwgeom/h/IwGeomBBox.h'
p1225
(lp1226
I1
ag1202
asS'c:/marmalade/7.6/modules/iwgeom/h/IwGeomFIntersect.h'
p1227
(lp1228
I1
ag1202
asS'c:/marmalade/7.6/modules/iwgeom/h/IwGeomSVec4.h'
p1229
(lp1230
I1
ag1202
asS'c:/marmalade/7.6/modules/iwgeom/h/IwGeomCore.h'
p1231
(lp1232
I1
ag1202
asS'c:/marmalade/7.6/modules/iwgeom/h/IwGeomMat.h'
p1233
(lp1234
I1
ag1202
asS'c:/marmalade/7.6/modules/iwgeom/h/IwGeomMat2D.h.tpl'
p1235
(lp1236
I1
ag1202
asS'c:/marmalade/7.6/modules/iwgeom/h/IwGeomIntersect.h'
p1237
(lp1238
I1
ag1202
asS'c:/marmalade/7.6/modules/iwgeom/h/IwGeomFQuat.h'
p1239
(lp1240
I1
ag1202
asS'c:/marmalade/7.6/modules/iwgeom/h/IwGeomVec.h'
p1241
(lp1242
I1
ag1202
asS'c:/marmalade/7.6/modules/iwgeom/h/IwGeomFMat.h'
p1243
(lp1244
I1
ag1202
asS'c:/marmalade/7.6/modules/iwgeom/h/IwGeom.h'
p1245
(lp1246
I1
ag1202
asS'c:/marmalade/7.6/modules/iwgeom/h/IwGeomMenu.h'
p1247
(lp1248
I1
ag1202
asS'c:/marmalade/7.6/modules/iwgeom/h/IwGeomFVec4.h'
p1249
(lp1250
I1
ag1202
asS'c:/marmalade/7.6/modules/iwgeom/h/IwGeomFBBox.h'
p1251
(lp1252
I1
ag1202
asS'c:/marmalade/7.6/modules/iwgeom/h/IwGeomFVec2.h'
p1253
(lp1254
I1
ag1202
asS'c:/marmalade/7.6/modules/iwgeom/h/IwGeomFMat2D.h'
p1255
(lp1256
I1
ag1202
asS'c:/marmalade/7.6/modules/iwgeom/h/IwGeomQuat.h.tpl'
p1257
(lp1258
I1
ag1202
asS'c:/marmalade/7.6/modules/iwgeom/h/IwGeomFVec3.h'
p1259
(lp1260
I1
ag1202
asS'c:/marmalade/7.6/modules/iwgeom/h/IwGeomSphere.h'
p1261
(lp1262
I1
ag1202
asS'c:/marmalade/7.6/modules/iwgeom/h/IwGeomFSphere.h'
p1263
(lp1264
I1
ag1202
asS'c:/marmalade/7.6/modules/iwgeom/h/IwGeomSQuat.h'
p1265
(lp1266
I1
ag1202
asS'c:/marmalade/7.6/modules/iwgeom/h/IwGeomVec.h.tpl'
p1267
(lp1268
I1
ag1202
asS'c:/marmalade/7.6/modules/iwgeom/h/IwGeomLegacy.h'
p1269
(lp1270
I1
ag1202
asS'c:/marmalade/7.6/modules/iwgeom/iwgeom.mkf'
p1271
(lp1272
I1
a(dp1273
assS'iwresmanager'
p1274
(dp1275
S'c:/marmalade/7.6/modules/iwresmanager/h/IwResManagerClass.h'
p1276
(lp1277
I1
a(dp1278
asS'c:/marmalade/7.6/modules/iwresmanager/h/IwResHandlerITX.h'
p1279
(lp1280
I1
ag1278
asS'c:/marmalade/7.6/modules/iwresmanager/h/IwResHandler.h'
p1281
(lp1282
I1
ag1278
asS'c:/marmalade/7.6/modules/iwresmanager/h/IwResHandlerGROUP.h'
p1283
(lp1284
I1
ag1278
asS'c:/marmalade/7.6/modules/iwresmanager/docs/iwresmanager.config.txt'
p1285
(lp1286
I1
ag1278
asS'c:/marmalade/7.6/modules/iwresmanager/h/IwResGroup.h'
p1287
(lp1288
I1
ag1278
asS'c:/marmalade/7.6/modules/iwresmanager/iwresmanager.mkf'
p1289
(lp1290
I1
a(dp1291
asS'c:/marmalade/7.6/modules/iwresmanager/h/IwResHandlerImage.h'
p1292
(lp1293
I1
ag1278
asS'c:/marmalade/7.6/modules/iwresmanager/h/IwResSerialise.h'
p1294
(lp1295
I1
ag1278
asS'c:/marmalade/7.6/modules/iwresmanager/h/IwResManager.h'
p1296
(lp1297
I1
ag1278
assS'iwgx'
p1298
(dp1299
S'c:/marmalade/7.6/modules/iwgx/h/IwGxTransformSW.h'
p1300
(lp1301
I1
a(dp1302
asS'c:/marmalade/7.6/modules/iwgx/h/IwGxDebug.h'
p1303
(lp1304
I1
ag1302
asS'c:/marmalade/7.6/modules/iwgx/h/IwMatAnim.h'
p1305
(lp1306
I1
ag1302
asS'c:/marmalade/7.6/modules/iwgx/h/IwFColour.h'
p1307
(lp1308
I1
ag1302
asS'c:/marmalade/7.6/modules/iwgx/h/IwGxFuncTable.h'
p1309
(lp1310
I1
ag1302
asS'c:/marmalade/7.6/modules/iwgx/h/IwClip.h'
p1311
(lp1312
I1
ag1302
asS'c:/marmalade/7.6/modules/iwgx/h/IwClip.inl'
p1313
(lp1314
I1
ag1302
asS'c:/marmalade/7.6/modules/iwgx/h/IwResHandlerMTL.h'
p1315
(lp1316
I1
ag1302
asS'c:/marmalade/7.6/modules/iwgx/h/IwGxError.h'
p1317
(lp1318
I1
ag1302
asS'c:/marmalade/7.6/modules/iwgx/h/IwGxMetrics.h'
p1319
(lp1320
I1
ag1302
asS'c:/marmalade/7.6/modules/iwgx/h/IwTexture.h'
p1321
(lp1322
I1
ag1302
asS'c:/marmalade/7.6/modules/iwgx/h/IwGxSurface.h'
p1323
(lp1324
I1
ag1302
asS'c:/marmalade/7.6/modules/iwgx/docs/iwgx_public.defines.txt'
p1325
(lp1326
I1
ag1302
asS'c:/marmalade/7.6/modules/iwgx/h/IwColour.h'
p1327
(lp1328
I1
ag1302
asS'c:/marmalade/7.6/modules/iwgx/h/IwDebugPrim.h'
p1329
(lp1330
I1
ag1302
asS'c:/marmalade/7.6/modules/iwgx/h/IwGxState.h'
p1331
(lp1332
I1
ag1302
asS'c:/marmalade/7.6/modules/iwgx/docs/iwgx.config.txt'
p1333
(lp1334
I1
ag1302
asS'c:/marmalade/7.6/modules/iwgx/h/IwGx.h'
p1335
(lp1336
I1
ag1302
asS'c:/marmalade/7.6/modules/iwgx/h/IwGxPrint.h'
p1337
(lp1338
I1
ag1302
asS'c:/marmalade/7.6/modules/iwgx/h/IwTPage.h'
p1339
(lp1340
I1
ag1302
asS'c:/marmalade/7.6/modules/iwgx/iwgx.mkf'
p1341
(lp1342
I1
a(dp1343
asS'c:/marmalade/7.6/modules/iwgx/h/IwGxShaderTechnique.h'
p1344
(lp1345
I1
ag1302
asS'c:/marmalade/7.6/modules/iwgx/h/IwGxStream.h'
p1346
(lp1347
I1
ag1302
asS'c:/marmalade/7.6/modules/iwgx/h/IwMaterial.h'
p1348
(lp1349
I1
ag1302
asS'c:/marmalade/7.6/modules/iwgx/h/IwGxTypes.h'
p1350
(lp1351
I1
ag1302
assS'iwutil'
p1352
(dp1353
S'c:/marmalade/7.6/modules/iwutil/h/IwMenu.h'
p1354
(lp1355
I1
a(dp1356
asS'c:/marmalade/7.6/modules/iwutil/h/IwFile.h'
p1357
(lp1358
I1
ag1356
asS'c:/marmalade/7.6/modules/iwutil/h/IwOptimiseARM.h'
p1359
(lp1360
I1
ag1356
asS'c:/marmalade/7.6/modules/iwutil/iwutil.mkf'
p1361
(lp1362
I1
a(dp1363
asS'c:/marmalade/7.6/modules/iwutil/h/IwArray.h'
p1364
(lp1365
I1
ag1356
asS'c:/marmalade/7.6/modules/iwutil/h/IwEvent.h'
p1366
(lp1367
I1
ag1356
asS'c:/marmalade/7.6/modules/iwutil/h/IwRandom.h'
p1368
(lp1369
I1
ag1356
asS'c:/marmalade/7.6/modules/iwutil/h/IwMemBucket.h'
p1370
(lp1371
I1
ag1356
asS'c:/marmalade/7.6/modules/iwutil/h/IwOptimiseSize.h'
p1372
(lp1373
I1
ag1356
asS'c:/marmalade/7.6/modules/iwutil/h/IwResource.h'
p1374
(lp1375
I1
ag1356
asS'c:/marmalade/7.6/modules/iwutil/h/IwTextParser.h'
p1376
(lp1377
I1
ag1356
asS'c:/marmalade/7.6/modules/iwutil/h/IwKeymap.h'
p1378
(lp1379
I1
ag1356
asS'c:/marmalade/7.6/modules/iwutil/h/IwClassFactory.h'
p1380
(lp1381
I1
ag1356
asS'c:/marmalade/7.6/modules/iwutil/h/IwPath.h'
p1382
(lp1383
I1
ag1356
asS'c:/marmalade/7.6/modules/iwutil/h/IwUtilInitTerm.h'
p1384
(lp1385
I1
ag1356
asS'c:/marmalade/7.6/modules/iwutil/h/IwVariableBitField.h'
p1386
(lp1387
I1
ag1356
asS'c:/marmalade/7.6/modules/iwutil/h/IwManaged.h'
p1388
(lp1389
I1
ag1356
asS'c:/marmalade/7.6/modules/iwutil/h/IwUTF8.h'
p1390
(lp1391
I1
ag1356
asS'c:/marmalade/7.6/modules/iwutil/h/IwTextParserITX.h'
p1392
(lp1393
I1
ag1356
asS'c:/marmalade/7.6/modules/iwutil/h/IwImage.h'
p1394
(lp1395
I1
ag1356
asS'c:/marmalade/7.6/modules/iwutil/docs/iwutil.config.txt'
p1396
(lp1397
I1
ag1356
asS'c:/marmalade/7.6/modules/iwutil/h/IwUncopyable.h'
p1398
(lp1399
I1
ag1356
asS'c:/marmalade/7.6/modules/iwutil/h/IwAllocator.h'
p1400
(lp1401
I1
ag1356
asS'c:/marmalade/7.6/modules/iwutil/h/IwDivTable.h'
p1402
(lp1403
I1
ag1356
asS'c:/marmalade/7.6/modules/iwutil/h/IwManagedList.h'
p1404
(lp1405
I1
ag1356
asS'c:/marmalade/7.6/modules/iwutil/h/IwFibre.h'
p1406
(lp1407
I1
ag1356
asS'c:/marmalade/7.6/modules/iwutil/h/IwMemBucketHelpers.h'
p1408
(lp1409
I1
ag1356
asS'c:/marmalade/7.6/modules/iwutil/h/IwCopyingPtr.h'
p1410
(lp1411
I1
ag1356
asS'c:/marmalade/7.6/modules/iwutil/h/IwCore.h'
p1412
(lp1413
I1
ag1356
asS'c:/marmalade/7.6/modules/iwutil/h/IwOptimiseThumb.h'
p1414
(lp1415
I1
ag1356
asS'c:/marmalade/7.6/modules/iwutil/h/IwProfileMenu.h'
p1416
(lp1417
I1
ag1356
asS'c:/marmalade/7.6/modules/iwutil/h/IwHashString.h'
p1418
(lp1419
I1
ag1356
asS'c:/marmalade/7.6/modules/iwutil/h/IwMath.h'
p1420
(lp1421
I1
ag1356
asS'c:/marmalade/7.6/modules/iwutil/h/IwString.h'
p1422
(lp1423
I1
ag1356
asS'c:/marmalade/7.6/modules/iwutil/h/IwList.h'
p1424
(lp1425
I1
ag1356
asS'c:/marmalade/7.6/modules/iwutil/h/IwTextParseable.h'
p1426
(lp1427
I1
ag1356
asS'c:/marmalade/7.6/modules/iwutil/h/IwOptimiseSpeed.h'
p1428
(lp1429
I1
ag1356
asS'c:/marmalade/7.6/modules/iwutil/h/IwMemManagerDL.h'
p1430
(lp1431
I1
ag1356
asS'c:/marmalade/7.6/modules/iwutil/h/IwSingleton.h'
p1432
(lp1433
I1
ag1356
asS'c:/marmalade/7.6/modules/iwutil/h/IwUtil.h'
p1434
(lp1435
I1
ag1356
asS'c:/marmalade/7.6/modules/iwutil/h/IwImageHelper.h'
p1436
(lp1437
I1
ag1356
asS'c:/marmalade/7.6/modules/iwutil/h/IwDebug.h'
p1438
(lp1439
I1
ag1356
asS'c:/marmalade/7.6/modules/iwutil/h/IwBuffer.h'
p1440
(lp1441
I1
ag1356
asS'c:/marmalade/7.6/modules/iwutil/h/IwRuntime.h'
p1442
(lp1443
I1
ag1356
asS'c:/marmalade/7.6/modules/iwutil/h/IwChar.h'
p1444
(lp1445
I1
ag1356
asS'c:/marmalade/7.6/modules/iwutil/h/IwAutoFile.h'
p1446
(lp1447
I1
ag1356
asS'c:/marmalade/7.6/modules/iwutil/h/IwSerialise.h'
p1448
(lp1449
I1
ag1356
asS'c:/marmalade/7.6/modules/iwutil/h/IwDivide.h'
p1450
(lp1451
I1
ag1356
asS'c:/marmalade/7.6/modules/iwutil/h/IwTypes.h'
p1452
(lp1453
I1
ag1356
asS'c:/marmalade/7.6/modules/iwutil/h/IwMemory.h'
p1454
(lp1455
I1
ag1356
asssS'(zlib)'
p1456
(dp1457
g1076
(dp1458
S'c:/marmalade/7.6/modules/third_party/zlib/h/zlib.h'
p1459
(lp1460
I1
a(dp1461
asS'c:/marmalade/7.6/modules/third_party/zlib/h/zconf.h'
p1462
(lp1463
I1
ag1461
assS'c:/marmalade/7.6/modules/third_party/zlib/zlib.mkf'
p1464
(lp1465
I1
a(dp1466
assS'(s3e-default)'
p1467
(dp1468
S'c:/marmalade/7.6/s3e/s3e-default.mkf'
p1469
(lp1470
I1
a(dp1471
asssS'files'
p1472
(dp1473
S'IwGxFontPreparedData.h'
p1474
g322
(cmkb_main
File
p1475
g324
Ntp1476
Rp1477
(dp1478
S'flags'
p1479
g1180
sS'group'
p1480
(lp1481
S"'Marmalade Studio'"
p1482
ag1176
asg348
g1178
sbsS'iterator'
p1483
g322
(g1475
g324
Ntp1484
Rp1485
(dp1486
g1479
(dp1487
sg1480
(lp1488
S"'Marmalade System (S3E)'"
p1489
aS'stdc headers'
p1490
aS'c++'
p1491
asg348
S'c:/marmalade/7.6/s3e/h/std/c++/iterator'
p1492
sbsS'IwGL.h'
p1493
g322
(g1475
g324
Ntp1494
Rp1495
(dp1496
g1479
g1156
sg1480
(lp1497
S"'Marmalade Studio'"
p1498
ag1152
asg348
g1154
sbsS's3e.h'
p1499
g322
(g1475
g324
Ntp1500
Rp1501
(dp1502
g1479
g1487
sg1480
(lp1503
g1489
asg348
S'c:/marmalade/7.6/s3e/h/s3e.h'
p1504
sbsS'errno.h'
p1505
g322
(g1475
g324
Ntp1506
Rp1507
(dp1508
g1479
g1487
sg1480
(lp1509
g1489
aS'stdc headers'
p1510
asg348
S'c:/marmalade/7.6/s3e/h/std/errno.h'
p1511
sbsS'IwSingleton.h'
p1512
g322
(g1475
g324
Ntp1513
Rp1514
(dp1515
g1479
g1356
sg1480
(lp1516
S"'Marmalade Studio'"
p1517
ag1352
asg348
g1432
sbsS'dlfcn.h'
p1518
g322
(g1475
g324
Ntp1519
Rp1520
(dp1521
g1479
g1487
sg1480
g1509
sg348
S'c:/marmalade/7.6/s3e/h/std/dlfcn.h'
p1522
sbsS'stdio_streambuf'
p1523
g322
(g1475
g324
Ntp1524
Rp1525
(dp1526
g1479
g1487
sg1480
g1488
sg348
S'c:/marmalade/7.6/s3e/h/std/c++/stdio_streambuf'
p1527
sbsS'sched.h'
p1528
g322
(g1475
g324
Ntp1529
Rp1530
(dp1531
g1479
g1487
sg1480
g1509
sg348
S'c:/marmalade/7.6/s3e/h/std/sched.h'
p1532
sbsS'IwGeomFMat2D.h'
p1533
g322
(g1475
g324
Ntp1534
Rp1535
(dp1536
g1479
g1202
sg1480
(lp1537
S"'Marmalade Studio'"
p1538
ag1198
asg348
g1255
sbsS's3eExt.h'
p1539
g322
(g1475
g324
Ntp1540
Rp1541
(dp1542
g1479
g1487
sg1480
g1503
sg348
S'c:/marmalade/7.6/s3e/h/s3eExt.h'
p1543
sbsS'grp.h'
p1544
g322
(g1475
g324
Ntp1545
Rp1546
(dp1547
g1479
g1487
sg1480
g1509
sg348
S'c:/marmalade/7.6/s3e/h/std/grp.h'
p1548
sbsS'list'
p1549
g322
(g1475
g324
Ntp1550
Rp1551
(dp1552
g1479
g1487
sg1480
g1488
sg348
S'c:/marmalade/7.6/s3e/h/std/c++/list'
p1553
sbsS'IwGeomMat.h.tpl'
p1554
g322
(g1475
g324
Ntp1555
Rp1556
(dp1557
g1479
g1202
sg1480
g1537
sg348
g1219
sbsS'istream'
p1558
g322
(g1475
g324
Ntp1559
Rp1560
(dp1561
g1479
g1487
sg1480
g1488
sg348
S'c:/marmalade/7.6/s3e/h/std/c++/istream'
p1562
sbsS'jpeglib.h'
p1563
g322
(g1475
g324
Ntp1564
Rp1565
(dp1566
g1479
g1091
sg1480
(lp1567
g1086
ag1076
asg348
g1089
sbsS'iw2d_public.defines.txt'
p1568
g322
(g1475
g324
Ntp1569
Rp1570
(dp1571
g1479
g1171
sg1480
(lp1572
S"'Marmalade Studio'"
p1573
ag1164
asg348
g1169
sbsS'iostream.h'
p1574
g322
(g1475
g324
Ntp1575
Rp1576
(dp1577
g1479
g1487
sg1480
g1488
sg348
S'c:/marmalade/7.6/s3e/h/std/c++/iostream.h'
p1578
sbsS'string'
p1579
g322
(g1475
g324
Ntp1580
Rp1581
(dp1582
g1479
g1487
sg1480
g1488
sg348
S'c:/marmalade/7.6/s3e/h/std/c++/string'
p1583
sbsS'IwMemory.h'
p1584
g322
(g1475
g324
Ntp1585
Rp1586
(dp1587
g1479
g1356
sg1480
g1516
sg348
g1454
sbsS'IwGeomPlane.h'
p1588
g322
(g1475
g324
Ntp1589
Rp1590
(dp1591
g1479
g1202
sg1480
g1537
sg348
g1205
sbsS'iw2d.config.txt'
p1592
g322
(g1475
g324
Ntp1593
Rp1594
(dp1595
g1479
g1171
sg1480
g1572
sg348
g1174
sbsS'iomanip'
p1596
g322
(g1475
g324
Ntp1597
Rp1598
(dp1599
g1479
g1487
sg1480
g1488
sg348
S'c:/marmalade/7.6/s3e/h/std/c++/iomanip'
p1600
sbsS'iwgeom.mkf'
p1601
g322
(g1475
g324
Ntp1602
Rp1603
(dp1604
g1479
g1273
sg1480
g1537
sg348
g1271
sbsS'IwGxError.h'
p1605
g322
(g1475
g324
Ntp1606
Rp1607
(dp1608
g1479
g1302
sg1480
(lp1609
S"'Marmalade Studio'"
p1610
ag1298
asg348
g1317
sbsS'IwGeom.h'
p1611
g322
(g1475
g324
Ntp1612
Rp1613
(dp1614
g1479
g1202
sg1480
g1537
sg348
g1245
sbsS'IwGeomVec4.h'
p1615
g322
(g1475
g324
Ntp1616
Rp1617
(dp1618
g1479
g1202
sg1480
g1537
sg348
g1221
sbsS'dir.h'
p1619
g322
(g1475
g324
Ntp1620
Rp1621
(dp1622
g1479
g1487
sg1480
(lp1623
g1489
aS'stdc headers'
p1624
aS'sys'
p1625
asg348
S'c:/marmalade/7.6/s3e/h/std/sys/dir.h'
p1626
sbsS'locale.h'
p1627
g322
(g1475
g324
Ntp1628
Rp1629
(dp1630
g1479
g1487
sg1480
g1509
sg348
S'c:/marmalade/7.6/s3e/h/std/locale.h'
p1631
sbsS'vector'
p1632
g322
(g1475
g324
Ntp1633
Rp1634
(dp1635
g1479
g1487
sg1480
g1488
sg348
S'c:/marmalade/7.6/s3e/h/std/c++/vector'
p1636
sbsS'IwManaged.h'
p1637
g322
(g1475
g324
Ntp1638
Rp1639
(dp1640
g1479
g1356
sg1480
g1516
sg348
g1388
sbsS's3eCompass.h'
p1641
g322
(g1475
g324
Ntp1642
Rp1643
(dp1644
g1479
g1487
sg1480
g1503
sg348
S'c:/marmalade/7.6/s3e/h/s3eCompass.h'
p1645
sbsS'cderror.h'
p1646
g322
(g1475
g324
Ntp1647
Rp1648
(dp1649
g1479
g1091
sg1480
g1567
sg348
g1106
sbsS'climits'
p1650
g322
(g1475
g324
Ntp1651
Rp1652
(dp1653
g1479
g1487
sg1480
g1488
sg348
S'c:/marmalade/7.6/s3e/h/std/c++/climits'
p1654
sbsS's3eVibra.h'
p1655
g322
(g1475
g324
Ntp1656
Rp1657
(dp1658
g1479
g1487
sg1480
g1503
sg348
S'c:/marmalade/7.6/s3e/h/s3eVibra.h'
p1659
sbsS'jversion.h'
p1660
g322
(g1475
g324
Ntp1661
Rp1662
(dp1663
g1479
g1091
sg1480
g1567
sg348
g1108
sbsS'fnmatch.h'
p1664
g322
(g1475
g324
Ntp1665
Rp1666
(dp1667
g1479
g1487
sg1480
g1509
sg348
S'c:/marmalade/7.6/s3e/h/std/fnmatch.h'
p1668
sbsS'IwGxState.h'
p1669
g322
(g1475
g324
Ntp1670
Rp1671
(dp1672
g1479
g1302
sg1480
g1609
sg348
g1331
sbsS's3eAudio.h'
p1673
g322
(g1475
g324
Ntp1674
Rp1675
(dp1676
g1479
g1487
sg1480
g1503
sg348
S'c:/marmalade/7.6/s3e/h/s3eAudio.h'
p1677
sbsS's3eSurface.h'
p1678
g322
(g1475
g324
Ntp1679
Rp1680
(dp1681
g1479
g1487
sg1480
g1503
sg348
S'c:/marmalade/7.6/s3e/h/s3eSurface.h'
p1682
sbsS'new'
p1683
g322
(g1475
g324
Ntp1684
Rp1685
(dp1686
g1479
g1487
sg1480
g1488
sg348
S'c:/marmalade/7.6/s3e/h/std/c++/new'
p1687
sbsS's3eWindow.h'
p1688
g322
(g1475
g324
Ntp1689
Rp1690
(dp1691
g1479
g1487
sg1480
(lp1692
g1489
aS'Extensions'
p1693
asg348
S'c:/marmalade/7.6/s3e/h/ext/s3eWindow.h'
p1694
sbsS'IwBuffer.h'
p1695
g322
(g1475
g324
Ntp1696
Rp1697
(dp1698
g1479
g1356
sg1480
g1516
sg348
g1440
sbsS'IwGeomQuat.h.tpl'
p1699
g322
(g1475
g324
Ntp1700
Rp1701
(dp1702
g1479
g1202
sg1480
g1537
sg348
g1257
sbsS's3eOSExec.h'
p1703
g322
(g1475
g324
Ntp1704
Rp1705
(dp1706
g1479
g1487
sg1480
g1692
sg348
S'c:/marmalade/7.6/s3e/h/ext/s3eOSExec.h'
p1707
sbsS'IwGxTransformSW.h'
p1708
g322
(g1475
g324
Ntp1709
Rp1710
(dp1711
g1479
g1302
sg1480
g1609
sg348
g1300
sbsS'IwGxMetrics.h'
p1712
g322
(g1475
g324
Ntp1713
Rp1714
(dp1715
g1479
g1302
sg1480
g1609
sg348
g1319
sbsS'iwgxfont.config.txt'
p1716
g322
(g1475
g324
Ntp1717
Rp1718
(dp1719
g1479
g1180
sg1480
g1481
sg348
g1196
sbsS'gl2platform.h'
p1720
g322
(g1475
g324
Ntp1721
Rp1722
(dp1723
g1479
g1487
sg1480
(lp1724
g1489
aS'GL'
p1725
aS'GLES 2.0'
p1726
asg348
S'c:/marmalade/7.6/s3e/h/GLES2/gl2platform.h'
p1727
sbsS'IwResManagerClass.h'
p1728
g322
(g1475
g324
Ntp1729
Rp1730
(dp1731
g1479
g1278
sg1480
(lp1732
g1150
ag1274
asg348
g1276
sbsS'queue'
p1733
g322
(g1475
g324
Ntp1734
Rp1735
(dp1736
g1479
g1487
sg1480
g1488
sg348
S'c:/marmalade/7.6/s3e/h/std/c++/queue'
p1737
sbsS'time_1.h'
p1738
g322
(g1475
g324
Ntp1739
Rp1740
(dp1741
g1479
g1487
sg1480
g1623
sg348
S'c:/marmalade/7.6/s3e/h/std/sys/time.h'
p1742
sbsS'Iw2D.h'
p1743
g322
(g1475
g324
Ntp1744
Rp1745
(dp1746
g1479
g1171
sg1480
g1572
sg348
g1172
sbsS'IwGeomVec2.h'
p1747
g322
(g1475
g324
Ntp1748
Rp1749
(dp1750
g1479
g1202
sg1480
g1537
sg348
g1213
sbsS's3eDevice.h'
p1751
g322
(g1475
g324
Ntp1752
Rp1753
(dp1754
g1479
g1487
sg1480
g1503
sg348
S'c:/marmalade/7.6/s3e/h/s3eDevice.h'
p1755
sbsS'malloc.h'
p1756
g322
(g1475
g324
Ntp1757
Rp1758
(dp1759
g1479
g1487
sg1480
g1509
sg348
S'c:/marmalade/7.6/s3e/h/std/malloc.h'
p1760
sbsS'stdarg.h'
p1761
g322
(g1475
g324
Ntp1762
Rp1763
(dp1764
g1479
g1487
sg1480
g1509
sg348
S'c:/marmalade/7.6/s3e/h/std/stdarg.h'
p1765
sbsS'IwGeomCore.h'
p1766
g322
(g1475
g324
Ntp1767
Rp1768
(dp1769
g1479
g1202
sg1480
g1537
sg348
g1231
sbsS'endian.h'
p1770
g322
(g1475
g324
Ntp1771
Rp1772
(dp1773
g1479
g1487
sg1480
g1509
sg348
S'c:/marmalade/7.6/s3e/h/std/endian.h'
p1774
sbsS'gl3ext.h'
p1775
g322
(g1475
g324
Ntp1776
Rp1777
(dp1778
g1479
g1487
sg1480
(lp1779
g1489
aS'GL'
p1780
aS'GLES 3.0'
p1781
asg348
S'c:/marmalade/7.6/s3e/h/GLES3/gl3ext.h'
p1782
sbsS'glob.h'
p1783
g322
(g1475
g324
Ntp1784
Rp1785
(dp1786
g1479
g1487
sg1480
g1509
sg348
S'c:/marmalade/7.6/s3e/h/std/glob.h'
p1787
sbsS'fstream'
p1788
g322
(g1475
g324
Ntp1789
Rp1790
(dp1791
g1479
g1487
sg1480
g1488
sg348
S'c:/marmalade/7.6/s3e/h/std/c++/fstream'
p1792
sbsS's3eCamera.h'
p1793
g322
(g1475
g324
Ntp1794
Rp1795
(dp1796
g1479
g1487
sg1480
g1503
sg348
S'c:/marmalade/7.6/s3e/h/s3eCamera.h'
p1797
sbsS'jconfig.h'
p1798
g322
(g1475
g324
Ntp1799
Rp1800
(dp1801
g1479
g1091
sg1480
g1567
sg348
g1098
sbsS'memory'
p1802
g322
(g1475
g324
Ntp1803
Rp1804
(dp1805
g1479
g1487
sg1480
g1488
sg348
S'c:/marmalade/7.6/s3e/h/std/c++/memory'
p1806
sbsS'egl.h'
p1807
g322
(g1475
g324
Ntp1808
Rp1809
(dp1810
g1479
g1487
sg1480
(lp1811
g1489
aS'GL'
p1812
aS'EGL'
p1813
asg348
S'c:/marmalade/7.6/s3e/h/EGL/egl.h'
p1814
sbsS'IwClip.inl'
p1815
g322
(g1475
g324
Ntp1816
Rp1817
(dp1818
g1479
g1302
sg1480
g1609
sg348
g1313
sbsS'IwMemManagerDL.h'
p1819
g322
(g1475
g324
Ntp1820
Rp1821
(dp1822
g1479
g1356
sg1480
g1516
sg348
g1430
sbsS'deque'
p1823
g322
(g1475
g324
Ntp1824
Rp1825
(dp1826
g1479
g1487
sg1480
g1488
sg348
S'c:/marmalade/7.6/s3e/h/std/c++/deque'
p1827
sbsS'IwString.h'
p1828
g322
(g1475
g324
Ntp1829
Rp1830
(dp1831
g1479
g1356
sg1480
g1516
sg348
g1422
sbsS'cwchar'
p1832
g322
(g1475
g324
Ntp1833
Rp1834
(dp1835
g1479
g1487
sg1480
g1488
sg348
S'c:/marmalade/7.6/s3e/h/std/c++/cwchar'
p1836
sbsS'iwutil.mkf'
p1837
g322
(g1475
g324
Ntp1838
Rp1839
(dp1840
g1479
g1363
sg1480
g1516
sg348
g1361
sbsS'csignal'
p1841
g322
(g1475
g324
Ntp1842
Rp1843
(dp1844
g1479
g1487
sg1480
g1488
sg348
S'c:/marmalade/7.6/s3e/h/std/c++/csignal'
p1845
sbsS'float.h'
p1846
g322
(g1475
g324
Ntp1847
Rp1848
(dp1849
g1479
g1487
sg1480
g1509
sg348
S'c:/marmalade/7.6/s3e/h/std/float.h'
p1850
sbsS'pthread_alloc'
p1851
g322
(g1475
g324
Ntp1852
Rp1853
(dp1854
g1479
g1487
sg1480
g1488
sg348
S'c:/marmalade/7.6/s3e/h/std/c++/pthread_alloc'
p1855
sbsS'getopt.h'
p1856
g322
(g1475
g324
Ntp1857
Rp1858
(dp1859
g1479
g1487
sg1480
g1509
sg348
S'c:/marmalade/7.6/s3e/h/std/getopt.h'
p1860
sbsS'IwOptimiseARM.h'
p1861
g322
(g1475
g324
Ntp1862
Rp1863
(dp1864
g1479
g1356
sg1480
g1516
sg348
g1359
sbsS'times.h'
p1865
g322
(g1475
g324
Ntp1866
Rp1867
(dp1868
g1479
g1487
sg1480
g1623
sg348
S'c:/marmalade/7.6/s3e/h/std/sys/times.h'
p1869
sbsS'IwGeomFSphere.h'
p1870
g322
(g1475
g324
Ntp1871
Rp1872
(dp1873
g1479
g1202
sg1480
g1537
sg348
g1263
sbsS'IwTypes.h'
p1874
g322
(g1475
g324
Ntp1875
Rp1876
(dp1877
g1479
g1356
sg1480
g1516
sg348
g1452
sbsS'unistd.h'
p1878
g322
(g1475
g324
Ntp1879
Rp1880
(dp1881
g1479
g1487
sg1480
g1509
sg348
S'c:/marmalade/7.6/s3e/h/std/unistd.h'
p1882
sbsS's3eCompression.h'
p1883
g322
(g1475
g324
Ntp1884
Rp1885
(dp1886
g1479
g1487
sg1480
g1503
sg348
S'c:/marmalade/7.6/s3e/h/s3eCompression.h'
p1887
sbsS'langinfo.h'
p1888
g322
(g1475
g324
Ntp1889
Rp1890
(dp1891
g1479
g1487
sg1480
g1509
sg348
S'c:/marmalade/7.6/s3e/h/std/langinfo.h'
p1892
sbsS's3edebugHeap.h'
p1893
g322
(g1475
g324
Ntp1894
Rp1895
(dp1896
g1479
g1487
sg1480
g1692
sg348
S'c:/marmalade/7.6/s3e/h/ext/s3edebugHeap.h'
p1897
sbsS'AirplayVersion.h'
p1898
g322
(g1475
g324
Ntp1899
Rp1900
(dp1901
g1479
g1487
sg1480
g1503
sg348
S'c:/marmalade/7.6/s3e/h/AirplayVersion.h'
p1902
sbsS'gl2extimg.h'
p1903
g322
(g1475
g324
Ntp1904
Rp1905
(dp1906
g1479
g1487
sg1480
g1724
sg348
S'c:/marmalade/7.6/s3e/h/GLES2/gl2extimg.h'
p1907
sbsS'app.config.txt'
p1908
g322
(g1475
g324
Ntp1909
Rp1910
(dp1911
g1479
(dp1912
sg1480
g4
sg348
S'c:/Users/Sean/Documents/C++/Mormalade/Game01/data/app.config.txt'
p1913
sbsS'IwGeomSqrt.h'
p1914
g322
(g1475
g324
Ntp1915
Rp1916
(dp1917
g1479
g1202
sg1480
g1537
sg348
g1215
sbsS'tiniconv_int.h'
p1918
g322
(g1475
g324
Ntp1919
Rp1920
(dp1921
g1479
g1125
sg1480
(lp1922
g1121
asg348
g1126
sbsS'syslog.h'
p1923
g322
(g1475
g324
Ntp1924
Rp1925
(dp1926
g1479
g1487
sg1480
g1509
sg348
S'c:/marmalade/7.6/s3e/h/std/syslog.h'
p1927
sbsS'IwGxFontTypes.h'
p1928
g322
(g1475
g324
Ntp1929
Rp1930
(dp1931
g1479
g1180
sg1480
g1481
sg348
g1186
sbsS'IwGeomFIntersect.h'
p1932
g322
(g1475
g324
Ntp1933
Rp1934
(dp1935
g1479
g1202
sg1480
g1537
sg348
g1227
sbsS'hash_map'
p1936
g322
(g1475
g324
Ntp1937
Rp1938
(dp1939
g1479
g1487
sg1480
g1488
sg348
S'c:/marmalade/7.6/s3e/h/std/c++/hash_map'
p1940
sbsS's3e.mkf'
p1941
g322
(g1475
g324
Ntp1942
Rp1943
(dp1944
g1479
(dp1945
sg1480
g1503
sg348
S'c:/marmalade/7.6/s3e/s3e.mkf'
p1946
sbsS'IwGeomMat2D.h.tpl'
p1947
g322
(g1475
g324
Ntp1948
Rp1949
(dp1950
g1479
g1202
sg1480
g1537
sg348
g1235
sbsS's3eOSReadString.h'
p1951
g322
(g1475
g324
Ntp1952
Rp1953
(dp1954
g1479
g1487
sg1480
g1692
sg348
S'c:/marmalade/7.6/s3e/h/ext/s3eOSReadString.h'
p1955
sbsS'map'
p1956
g322
(g1475
g324
Ntp1957
Rp1958
(dp1959
g1479
g1487
sg1480
g1488
sg348
S'c:/marmalade/7.6/s3e/h/std/c++/map'
p1960
sbsS'IwOptimiseSpeed.h'
p1961
g322
(g1475
g324
Ntp1962
Rp1963
(dp1964
g1479
g1356
sg1480
g1516
sg348
g1428
sbsS'msl_string.h'
p1965
g322
(g1475
g324
Ntp1966
Rp1967
(dp1968
g1479
g1487
sg1480
g1488
sg348
S'c:/marmalade/7.6/s3e/h/std/c++/msl_string.h'
p1969
sbsS'select.h'
p1970
g322
(g1475
g324
Ntp1971
Rp1972
(dp1973
g1479
g1487
sg1480
g1623
sg348
S'c:/marmalade/7.6/s3e/h/std/sys/select.h'
p1974
sbsS'zlib.mkf'
p1975
g322
(g1475
g324
Ntp1976
Rp1977
(dp1978
g1479
g1466
sg1480
(lp1979
g1456
asg348
g1464
sbsS'signal.h'
p1980
g322
(g1475
g324
Ntp1981
Rp1982
(dp1983
g1479
g1487
sg1480
g1509
sg348
S'c:/marmalade/7.6/s3e/h/std/signal.h'
p1984
sbsS'sigcontext.h'
p1985
g322
(g1475
g324
Ntp1986
Rp1987
(dp1988
g1479
g1487
sg1480
g1509
sg348
S'c:/marmalade/7.6/s3e/h/std/sigcontext.h'
p1989
sbsS'libpng.mkf'
p1990
g322
(g1475
g324
Ntp1991
Rp1992
(dp1993
g1479
g1085
sg1480
(lp1994
g1074
asg348
g1083
sbsS's3eClipboard.h'
p1995
g322
(g1475
g324
Ntp1996
Rp1997
(dp1998
g1479
g1487
sg1480
g1503
sg348
S'c:/marmalade/7.6/s3e/h/s3eClipboard.h'
p1999
sbsS'IwGxFuncTable.h'
p2000
g322
(g1475
g324
Ntp2001
Rp2002
(dp2003
g1479
g1302
sg1480
g1609
sg348
g1309
sbsS'IwResHandlerGROUP.h'
p2004
g322
(g1475
g324
Ntp2005
Rp2006
(dp2007
g1479
g1278
sg1480
g1732
sg348
g1283
sbsS's3eDebug.h'
p2008
g322
(g1475
g324
Ntp2009
Rp2010
(dp2011
g1479
g1487
sg1480
g1503
sg348
S'c:/marmalade/7.6/s3e/h/s3eDebug.h'
p2012
sbsS'socket.h'
p2013
g322
(g1475
g324
Ntp2014
Rp2015
(dp2016
g1479
g1487
sg1480
g1623
sg348
S'c:/marmalade/7.6/s3e/h/std/sys/socket.h'
p2017
sbsS'glext.h'
p2018
g322
(g1475
g324
Ntp2019
Rp2020
(dp2021
g1479
g1487
sg1480
(lp2022
g1489
aS'GL'
p2023
aS'GLES 1.x'
p2024
asg348
S'c:/marmalade/7.6/s3e/h/GLES/glext.h'
p2025
sbsS'typeinfo.h'
p2026
g322
(g1475
g324
Ntp2027
Rp2028
(dp2029
g1479
g1487
sg1480
g1488
sg348
S'c:/marmalade/7.6/s3e/h/std/c++/typeinfo.h'
p2030
sbsS'typeinfo'
p2031
g322
(g1475
g324
Ntp2032
Rp2033
(dp2034
g1479
g1487
sg1480
g1488
sg348
S'c:/marmalade/7.6/s3e/h/std/c++/typeinfo'
p2035
sbsS'fstream.h'
p2036
g322
(g1475
g324
Ntp2037
Rp2038
(dp2039
g1479
g1487
sg1480
g1488
sg348
S'c:/marmalade/7.6/s3e/h/std/c++/fstream.h'
p2040
sbsS's3ePointer.h'
p2041
g322
(g1475
g324
Ntp2042
Rp2043
(dp2044
g1479
g1487
sg1480
g1503
sg348
S'c:/marmalade/7.6/s3e/h/s3ePointer.h'
p2045
sbsS'iw2d.mkf'
p2046
g322
(g1475
g324
Ntp2047
Rp2048
(dp2049
g1479
g1168
sg1480
g1572
sg348
g1166
sbsS'PVRTexTool.h'
p2050
g322
(g1475
g324
Ntp2051
Rp2052
(dp2053
g1479
g1142
sg1480
(lp2054
g1134
ag1136
asg348
g1148
sbsS's3eGL.h'
p2055
g322
(g1475
g324
Ntp2056
Rp2057
(dp2058
g1479
g1487
sg1480
g1503
sg348
S'c:/marmalade/7.6/s3e/h/s3eGL.h'
p2059
sbsS'IwGeomFVec2.h'
p2060
g322
(g1475
g324
Ntp2061
Rp2062
(dp2063
g1479
g1202
sg1480
g1537
sg348
g1253
sbsS'IwGeomSVec4.h'
p2064
g322
(g1475
g324
Ntp2065
Rp2066
(dp2067
g1479
g1202
sg1480
g1537
sg348
g1229
sbsS'poll.h'
p2068
g322
(g1475
g324
Ntp2069
Rp2070
(dp2071
g1479
g1487
sg1480
g1509
sg348
S'c:/marmalade/7.6/s3e/h/std/poll.h'
p2072
sbsS'IwMatAnim.h'
p2073
g322
(g1475
g324
Ntp2074
Rp2075
(dp2076
g1479
g1302
sg1480
g1609
sg348
g1305
sbsS'PVRTexTool.defines.txt'
p2077
g322
(g1475
g324
Ntp2078
Rp2079
(dp2080
g1479
g1142
sg1480
(lp2081
g1134
ag1136
ag1138
asg348
g1140
sbsS'IwGx.h'
p2082
g322
(g1475
g324
Ntp2083
Rp2084
(dp2085
g1479
g1302
sg1480
g1609
sg348
g1335
sbsS'valarray'
p2086
g322
(g1475
g324
Ntp2087
Rp2088
(dp2089
g1479
g1487
sg1480
g1488
sg348
S'c:/marmalade/7.6/s3e/h/std/c++/valarray'
p2090
sbsS'iosfwd'
p2091
g322
(g1475
g324
Ntp2092
Rp2093
(dp2094
g1479
g1487
sg1480
g1488
sg348
S'c:/marmalade/7.6/s3e/h/std/c++/iosfwd'
p2095
sbsS'gl2.h'
p2096
g322
(g1475
g324
Ntp2097
Rp2098
(dp2099
g1479
g1487
sg1480
g1724
sg348
S'c:/marmalade/7.6/s3e/h/GLES2/gl2.h'
p2100
sbsS'jpegint.h'
p2101
g322
(g1475
g324
Ntp2102
Rp2103
(dp2104
g1479
g1091
sg1480
g1567
sg348
g1100
sbsS'stdiostream.h'
p2105
g322
(g1475
g324
Ntp2106
Rp2107
(dp2108
g1479
g1487
sg1480
g1488
sg348
S'c:/marmalade/7.6/s3e/h/std/c++/stdiostream.h'
p2109
sbsS'mem.h'
p2110
g322
(g1475
g324
Ntp2111
Rp2112
(dp2113
g1479
g1487
sg1480
g1488
sg348
S'c:/marmalade/7.6/s3e/h/std/c++/mem.h'
p2114
sbsS'jerror.h'
p2115
g322
(g1475
g324
Ntp2116
Rp2117
(dp2118
g1479
g1091
sg1480
g1567
sg348
g1096
sbsS'zconf.h'
p2119
g322
(g1475
g324
Ntp2120
Rp2121
(dp2122
g1479
g1461
sg1480
(lp2123
g1456
ag1076
asg348
g1462
sbsS's3e.config.txt'
p2124
g322
(g1475
g324
Ntp2125
Rp2126
(dp2127
g1479
g1487
sg1480
g1503
sg348
S'c:/marmalade/7.6/s3e/s3e.config.txt'
p2128
sbsS'numeric'
p2129
g322
(g1475
g324
Ntp2130
Rp2131
(dp2132
g1479
g1487
sg1480
g1488
sg348
S'c:/marmalade/7.6/s3e/h/std/c++/numeric'
p2133
sbsS'utime.h'
p2134
g322
(g1475
g324
Ntp2135
Rp2136
(dp2137
g1479
g1487
sg1480
g1509
sg348
S'c:/marmalade/7.6/s3e/h/std/utime.h'
p2138
sbsS'jdhuff.h'
p2139
g322
(g1475
g324
Ntp2140
Rp2141
(dp2142
g1479
g1091
sg1480
g1567
sg348
g1104
sbsS'IwGxStream.h'
p2143
g322
(g1475
g324
Ntp2144
Rp2145
(dp2146
g1479
g1302
sg1480
g1609
sg348
g1346
sbsS'IwImage.h'
p2147
g322
(g1475
g324
Ntp2148
Rp2149
(dp2150
g1479
g1356
sg1480
g1516
sg348
g1394
sbsS's3eImagePicker.h'
p2151
g322
(g1475
g324
Ntp2152
Rp2153
(dp2154
g1479
g1487
sg1480
g1692
sg348
S'c:/marmalade/7.6/s3e/h/ext/s3eImagePicker.h'
p2155
sbsS'IwTextParserITX.h'
p2156
g322
(g1475
g324
Ntp2157
Rp2158
(dp2159
g1479
g1356
sg1480
g1516
sg348
g1392
sbsS'stdlib.h'
p2160
g322
(g1475
g324
Ntp2161
Rp2162
(dp2163
g1479
g1487
sg1480
g1509
sg348
S'c:/marmalade/7.6/s3e/h/std/stdlib.h'
p2164
sbsS'IwCopyingPtr.h'
p2165
g322
(g1475
g324
Ntp2166
Rp2167
(dp2168
g1479
g1356
sg1480
g1516
sg348
g1410
sbsS'iostream'
p2169
g322
(g1475
g324
Ntp2170
Rp2171
(dp2172
g1479
g1487
sg1480
g1488
sg348
S'c:/marmalade/7.6/s3e/h/std/c++/iostream'
p2173
sbsS'png.h'
p2174
g322
(g1475
g324
Ntp2175
Rp2176
(dp2177
g1479
g1080
sg1480
(lp2178
g1074
ag1076
asg348
g1078
sbsS'stddef.h'
p2179
g322
(g1475
g324
Ntp2180
Rp2181
(dp2182
g1479
g1487
sg1480
g1509
sg348
S'c:/marmalade/7.6/s3e/h/std/stddef.h'
p2183
sbsS'setjmp_win32.h'
p2184
g322
(g1475
g324
Ntp2185
Rp2186
(dp2187
g1479
g1487
sg1480
g1509
sg348
S'c:/marmalade/7.6/s3e/h/std/setjmp_win32.h'
p2188
sbsS'IwGxPrint.h'
p2189
g322
(g1475
g324
Ntp2190
Rp2191
(dp2192
g1479
g1302
sg1480
g1609
sg348
g1337
sbsS'iwgx_public.defines.txt'
p2193
g322
(g1475
g324
Ntp2194
Rp2195
(dp2196
g1479
g1302
sg1480
g1609
sg348
g1325
sbsS'streambuf.h'
p2197
g322
(g1475
g324
Ntp2198
Rp2199
(dp2200
g1479
g1487
sg1480
g1488
sg348
S'c:/marmalade/7.6/s3e/h/std/c++/streambuf.h'
p2201
sbsS'IwGeomFPlane.h'
p2202
g322
(g1475
g324
Ntp2203
Rp2204
(dp2205
g1479
g1202
sg1480
g1537
sg348
g1203
sbsS'wchar.h'
p2206
g322
(g1475
g324
Ntp2207
Rp2208
(dp2209
g1479
g1487
sg1480
g1509
sg348
S'c:/marmalade/7.6/s3e/h/std/wchar.h'
p2210
sbsS's3eCameraCapture.h'
p2211
g322
(g1475
g324
Ntp2212
Rp2213
(dp2214
g1479
g1487
sg1480
g1692
sg348
S'c:/marmalade/7.6/s3e/h/ext/s3eCameraCapture.h'
p2215
sbsS'eglext.h'
p2216
g322
(g1475
g324
Ntp2217
Rp2218
(dp2219
g1479
g1487
sg1480
g1811
sg348
S'c:/marmalade/7.6/s3e/h/EGL/eglext.h'
p2220
sbsS'IwResHandlerImage.h'
p2221
g322
(g1475
g324
Ntp2222
Rp2223
(dp2224
g1479
g1278
sg1480
g1732
sg348
g1292
sbsS'strstream.h'
p2225
g322
(g1475
g324
Ntp2226
Rp2227
(dp2228
g1479
g1487
sg1480
g1488
sg348
S'c:/marmalade/7.6/s3e/h/std/c++/strstream.h'
p2229
sbsS'tiniconv.h'
p2230
g322
(g1475
g324
Ntp2231
Rp2232
(dp2233
g1479
g1125
sg1480
g1922
sg348
g1123
sbsS'IwGLExt.h'
p2234
g322
(g1475
g324
Ntp2235
Rp2236
(dp2237
g1479
g1156
sg1480
g1497
sg348
g1162
sbsS'app.icf'
p2238
g322
(g1475
g324
Ntp2239
Rp2240
(dp2241
g1479
(dp2242
sg1480
g4
sg348
S'c:/Users/Sean/Documents/C++/Mormalade/Game01/data/app.icf'
p2243
sbsS'IwClassFactory.h'
p2244
g322
(g1475
g324
Ntp2245
Rp2246
(dp2247
g1479
g1356
sg1480
g1516
sg348
g1380
sbsS'file.h'
p2248
g322
(g1475
g324
Ntp2249
Rp2250
(dp2251
g1479
g1487
sg1480
g1623
sg348
S'c:/marmalade/7.6/s3e/h/std/sys/file.h'
p2252
sbsS'cstring'
p2253
g322
(g1475
g324
Ntp2254
Rp2255
(dp2256
g1479
g1487
sg1480
g1488
sg348
S'c:/marmalade/7.6/s3e/h/std/c++/cstring'
p2257
sbsS'iwutil.config.txt'
p2258
g322
(g1475
g324
Ntp2259
Rp2260
(dp2261
g1479
g1356
sg1480
g1516
sg348
g1396
sbsS's3eSMS.h'
p2262
g322
(g1475
g324
Ntp2263
Rp2264
(dp2265
g1479
g1487
sg1480
g1692
sg348
S'c:/marmalade/7.6/s3e/h/ext/s3eSMS.h'
p2266
sbsS'limits.h'
p2267
g322
(g1475
g324
Ntp2268
Rp2269
(dp2270
g1479
g1487
sg1480
g1509
sg348
S'c:/marmalade/7.6/s3e/h/std/limits.h'
p2271
sbsS'iwgl.config.txt'
p2272
g322
(g1475
g324
Ntp2273
Rp2274
(dp2275
g1479
g1156
sg1480
g1497
sg348
g1160
sbsS'IwMaterial.h'
p2276
g322
(g1475
g324
Ntp2277
Rp2278
(dp2279
g1479
g1302
sg1480
g1609
sg348
g1348
sbsS'PVRTexTool_interface.cpp'
p2280
g322
(g1475
g324
Ntp2281
Rp2282
(dp2283
g1479
g1142
sg1480
g2081
sg348
g1143
sbsS'IwGxSurface.h'
p2284
g322
(g1475
g324
Ntp2285
Rp2286
(dp2287
g1479
g1302
sg1480
g1609
sg348
g1323
sbsS's3eSocket.h'
p2288
g322
(g1475
g324
Ntp2289
Rp2290
(dp2291
g1479
g1487
sg1480
g1503
sg348
S'c:/marmalade/7.6/s3e/h/s3eSocket.h'
p2292
sbsS'IwAutoFile.h'
p2293
g322
(g1475
g324
Ntp2294
Rp2295
(dp2296
g1479
g1356
sg1480
g1516
sg348
g1446
sbsS'ipc.h'
p2297
g322
(g1475
g324
Ntp2298
Rp2299
(dp2300
g1479
g1487
sg1480
g1623
sg348
S'c:/marmalade/7.6/s3e/h/std/sys/ipc.h'
p2301
sbsS'poll_1.h'
p2302
g322
(g1475
g324
Ntp2303
Rp2304
(dp2305
g1479
g1487
sg1480
g1623
sg348
S'c:/marmalade/7.6/s3e/h/std/sys/poll.h'
p2306
sbsS's3eThread.h'
p2307
g322
(g1475
g324
Ntp2308
Rp2309
(dp2310
g1479
g1487
sg1480
g1503
sg348
S'c:/marmalade/7.6/s3e/h/s3eThread.h'
p2311
sbsS'ucontext.h'
p2312
g322
(g1475
g324
Ntp2313
Rp2314
(dp2315
g1479
g1487
sg1480
g1509
sg348
S'c:/marmalade/7.6/s3e/h/std/ucontext.h'
p2316
sbsS'time.h'
p2317
g322
(g1475
g324
Ntp2318
Rp2319
(dp2320
g1479
g1487
sg1480
g1509
sg348
S'c:/marmalade/7.6/s3e/h/std/time.h'
p2321
sbsS'jchuff.h'
p2322
g322
(g1475
g324
Ntp2323
Rp2324
(dp2325
g1479
g1091
sg1480
g1567
sg348
g1094
sbsS's3eSoundRecord.h'
p2326
g322
(g1475
g324
Ntp2327
Rp2328
(dp2329
g1479
g1487
sg1480
g1503
sg348
S'c:/marmalade/7.6/s3e/h/s3eSoundRecord.h'
p2330
sbsS'IwFibre.h'
p2331
g322
(g1475
g324
Ntp2332
Rp2333
(dp2334
g1479
g1356
sg1480
g1516
sg348
g1406
sbsS's3eVersion.h'
p2335
g322
(g1475
g324
Ntp2336
Rp2337
(dp2338
g1479
g1487
sg1480
g1503
sg348
S'c:/marmalade/7.6/s3e/h/s3eVersion.h'
p2339
sbsS'IwGxFontGlyph.h'
p2340
g322
(g1475
g324
Ntp2341
Rp2342
(dp2343
g1479
g1180
sg1480
g1481
sg348
g1194
sbsS's3eTypes.h'
p2344
g322
(g1475
g324
Ntp2345
Rp2346
(dp2347
g1479
g1487
sg1480
g1503
sg348
S'c:/marmalade/7.6/s3e/h/s3eTypes.h'
p2348
sbsS'signal_2.h'
p2349
g322
(g1475
g324
Ntp2350
Rp2351
(dp2352
g1479
g1487
sg1480
g1488
sg348
S'c:/marmalade/7.6/s3e/h/std/c++/signal.h'
p2353
sbsS'termios.h'
p2354
g322
(g1475
g324
Ntp2355
Rp2356
(dp2357
g1479
g1487
sg1480
g1509
sg348
S'c:/marmalade/7.6/s3e/h/std/termios.h'
p2358
sbsS'slist'
p2359
g322
(g1475
g324
Ntp2360
Rp2361
(dp2362
g1479
g1487
sg1480
g1488
sg348
S'c:/marmalade/7.6/s3e/h/std/c++/slist'
p2363
sbsS'cstdlib'
p2364
g322
(g1475
g324
Ntp2365
Rp2366
(dp2367
g1479
g1487
sg1480
g1488
sg348
S'c:/marmalade/7.6/s3e/h/std/c++/cstdlib'
p2368
sbsS's3eLocation.h'
p2369
g322
(g1475
g324
Ntp2370
Rp2371
(dp2372
g1479
g1487
sg1480
g1503
sg348
S'c:/marmalade/7.6/s3e/h/s3eLocation.h'
p2373
sbsS'IwMemBucketHelpers.h'
p2374
g322
(g1475
g324
Ntp2375
Rp2376
(dp2377
g1479
g1356
sg1480
g1516
sg348
g1408
sbsS's3eHash.h'
p2378
g322
(g1475
g324
Ntp2379
Rp2380
(dp2381
g1479
g1487
sg1480
g1503
sg348
S'c:/marmalade/7.6/s3e/h/s3eHash.h'
p2382
sbsS'IwGeomFMat.h'
p2383
g322
(g1475
g324
Ntp2384
Rp2385
(dp2386
g1479
g1202
sg1480
g1537
sg348
g1243
sbsS'type_traits.h'
p2387
g322
(g1475
g324
Ntp2388
Rp2389
(dp2390
g1479
g1487
sg1480
g1488
sg348
S'c:/marmalade/7.6/s3e/h/std/c++/type_traits.h'
p2391
sbsS's3eAtomic.h'
p2392
g322
(g1475
g324
Ntp2393
Rp2394
(dp2395
g1479
g1487
sg1480
g1503
sg348
S'c:/marmalade/7.6/s3e/h/s3eAtomic.h'
p2396
sbsS'IwMenu.h'
p2397
g322
(g1475
g324
Ntp2398
Rp2399
(dp2400
g1479
g1356
sg1480
g1516
sg348
g1354
sbsS'IwResHandlerITX.h'
p2401
g322
(g1475
g324
Ntp2402
Rp2403
(dp2404
g1479
g1278
sg1480
g1732
sg348
g1279
sbsS'IwArray.h'
p2405
g322
(g1475
g324
Ntp2406
Rp2407
(dp2408
g1479
g1356
sg1480
g1516
sg348
g1364
sbsS'IwUTF8.h'
p2409
g322
(g1475
g324
Ntp2410
Rp2411
(dp2412
g1479
g1356
sg1480
g1516
sg348
g1390
sbsS'math_rvct.h'
p2413
g322
(g1475
g324
Ntp2414
Rp2415
(dp2416
g1479
g1487
sg1480
g1509
sg348
S'c:/marmalade/7.6/s3e/h/std/math_rvct.h'
p2417
sbsS'IwUtil.h'
p2418
g322
(g1475
g324
Ntp2419
Rp2420
(dp2421
g1479
g1356
sg1480
g1516
sg348
g1434
sbsS'IwFColour.h'
p2422
g322
(g1475
g324
Ntp2423
Rp2424
(dp2425
g1479
g1302
sg1480
g1609
sg348
g1307
sbsS'wctype.h'
p2426
g322
(g1475
g324
Ntp2427
Rp2428
(dp2429
g1479
g1487
sg1480
g1509
sg348
S'c:/marmalade/7.6/s3e/h/std/wctype.h'
p2430
sbsS'cstddef'
p2431
g322
(g1475
g324
Ntp2432
Rp2433
(dp2434
g1479
g1487
sg1480
g1488
sg348
S'c:/marmalade/7.6/s3e/h/std/c++/cstddef'
p2435
sbsS'assert.h'
p2436
g322
(g1475
g324
Ntp2437
Rp2438
(dp2439
g1479
g1487
sg1480
g1509
sg348
S'c:/marmalade/7.6/s3e/h/std/assert.h'
p2440
sbsS'mman.h'
p2441
g322
(g1475
g324
Ntp2442
Rp2443
(dp2444
g1479
g1487
sg1480
g1623
sg348
S'c:/marmalade/7.6/s3e/h/std/sys/mman.h'
p2445
sbsS'IwRandom.h'
p2446
g322
(g1475
g324
Ntp2447
Rp2448
(dp2449
g1479
g1356
sg1480
g1516
sg348
g1368
sbsS'libgen.h'
p2450
g322
(g1475
g324
Ntp2451
Rp2452
(dp2453
g1479
g1487
sg1480
g1509
sg348
S'c:/marmalade/7.6/s3e/h/std/libgen.h'
p2454
sbsS'utsname.h'
p2455
g322
(g1475
g324
Ntp2456
Rp2457
(dp2458
g1479
g1487
sg1480
g1623
sg348
S'c:/marmalade/7.6/s3e/h/std/sys/utsname.h'
p2459
sbsS'wait.h'
p2460
g322
(g1475
g324
Ntp2461
Rp2462
(dp2463
g1479
g1487
sg1480
g1623
sg348
S'c:/marmalade/7.6/s3e/h/std/sys/wait.h'
p2464
sbsS'param.h'
p2465
g322
(g1475
g324
Ntp2466
Rp2467
(dp2468
g1479
g1487
sg1480
g1623
sg348
S'c:/marmalade/7.6/s3e/h/std/sys/param.h'
p2469
sbsS'Game01.cpp'
p2470
g322
(g1475
g324
Ntp2471
Rp2472
(dp2473
g1479
g1133
sg1480
(lp2474
sg348
g1131
sbsS'IwDivide.h'
p2475
g322
(g1475
g324
Ntp2476
Rp2477
(dp2478
g1479
g1356
sg1480
g1516
sg348
g1450
sbsS'IwResManager.h'
p2479
g322
(g1475
g324
Ntp2480
Rp2481
(dp2482
g1479
g1278
sg1480
g1732
sg348
g1296
sbsS'ostream'
p2483
g322
(g1475
g324
Ntp2484
Rp2485
(dp2486
g1479
g1487
sg1480
g1488
sg348
S'c:/marmalade/7.6/s3e/h/std/c++/ostream'
p2487
sbsS'cwctype'
p2488
g322
(g1475
g324
Ntp2489
Rp2490
(dp2491
g1479
g1487
sg1480
g1488
sg348
S'c:/marmalade/7.6/s3e/h/std/c++/cwctype'
p2492
sbsS'set'
p2493
g322
(g1475
g324
Ntp2494
Rp2495
(dp2496
g1479
g1487
sg1480
g1488
sg348
S'c:/marmalade/7.6/s3e/h/std/c++/set'
p2497
sbsS'IwGeomSQuat.h'
p2498
g322
(g1475
g324
Ntp2499
Rp2500
(dp2501
g1479
g1202
sg1480
g1537
sg348
g1265
sbsS'locale'
p2502
g322
(g1475
g324
Ntp2503
Rp2504
(dp2505
g1479
g1487
sg1480
g1488
sg348
S'c:/marmalade/7.6/s3e/h/std/c++/locale'
p2506
sbsS'cstdio'
p2507
g322
(g1475
g324
Ntp2508
Rp2509
(dp2510
g1479
g1487
sg1480
g1488
sg348
S'c:/marmalade/7.6/s3e/h/std/c++/cstdio'
p2511
sbsS'cdjpeg.h'
p2512
g322
(g1475
g324
Ntp2513
Rp2514
(dp2515
g1479
g1091
sg1480
g1567
sg348
g1110
sbsS'IwList.h'
p2516
g322
(g1475
g324
Ntp2517
Rp2518
(dp2519
g1479
g1356
sg1480
g1516
sg348
g1424
sbsS'inttypes.h'
p2520
g322
(g1475
g324
Ntp2521
Rp2522
(dp2523
g1479
g1487
sg1480
g1509
sg348
S'c:/marmalade/7.6/s3e/h/std/inttypes.h'
p2524
sbsS'dirent.h'
p2525
g322
(g1475
g324
Ntp2526
Rp2527
(dp2528
g1479
g1487
sg1480
g1509
sg348
S'c:/marmalade/7.6/s3e/h/std/dirent.h'
p2529
sbsS'IwGeomVec3.h'
p2530
g322
(g1475
g324
Ntp2531
Rp2532
(dp2533
g1479
g1202
sg1480
g1537
sg348
g1209
sbsS'transupp.h'
p2534
g322
(g1475
g324
Ntp2535
Rp2536
(dp2537
g1479
g1091
sg1480
g1567
sg348
g1092
sbsS'IwMath.h'
p2538
g322
(g1475
g324
Ntp2539
Rp2540
(dp2541
g1479
g1356
sg1480
g1516
sg348
g1420
sbsS'IwGeomQuat.h'
p2542
g322
(g1475
g324
Ntp2543
Rp2544
(dp2545
g1479
g1202
sg1480
g1537
sg348
g1217
sbsS'glplatform.h'
p2546
g322
(g1475
g324
Ntp2547
Rp2548
(dp2549
g1479
g1487
sg1480
g2022
sg348
S'c:/marmalade/7.6/s3e/h/GLES/glplatform.h'
p2550
sbsS's3e-default.mkf'
p2551
g322
(g1475
g324
Ntp2552
Rp2553
(dp2554
g1479
g1471
sg1480
(lp2555
g1467
asg348
g1469
sbsS'bitset'
p2556
g322
(g1475
g324
Ntp2557
Rp2558
(dp2559
g1479
g1487
sg1480
g1488
sg348
S'c:/marmalade/7.6/s3e/h/std/c++/bitset'
p2560
sbsS'alloca.h'
p2561
g322
(g1475
g324
Ntp2562
Rp2563
(dp2564
g1479
g1487
sg1480
g1509
sg348
S'c:/marmalade/7.6/s3e/h/std/alloca.h'
p2565
sbsS'IwResHandler.h'
p2566
g322
(g1475
g324
Ntp2567
Rp2568
(dp2569
g1479
g1278
sg1480
g1732
sg348
g1281
sbsS'IwResHandlerMTL.h'
p2570
g322
(g1475
g324
Ntp2571
Rp2572
(dp2573
g1479
g1302
sg1480
g1609
sg348
g1315
sbsS'IwRuntime.h'
p2574
g322
(g1475
g324
Ntp2575
Rp2576
(dp2577
g1479
g1356
sg1480
g1516
sg348
g1442
sbsS'limits'
p2578
g322
(g1475
g324
Ntp2579
Rp2580
(dp2581
g1479
g1487
sg1480
g1488
sg348
S'c:/marmalade/7.6/s3e/h/std/c++/limits'
p2582
sbsS'IwGeomBBox.h'
p2583
g322
(g1475
g324
Ntp2584
Rp2585
(dp2586
g1479
g1202
sg1480
g1537
sg348
g1225
sbsS's3eContacts.h'
p2587
g322
(g1475
g324
Ntp2588
Rp2589
(dp2590
g1479
g1487
sg1480
g1503
sg348
S'c:/marmalade/7.6/s3e/h/s3eContacts.h'
p2591
sbsS's3eLicense.h'
p2592
g322
(g1475
g324
Ntp2593
Rp2594
(dp2595
g1479
g1487
sg1480
g1503
sg348
S'c:/marmalade/7.6/s3e/h/s3eLicense.h'
p2596
sbsS'iwgx.config.txt'
p2597
g322
(g1475
g324
Ntp2598
Rp2599
(dp2600
g1479
g1302
sg1480
g1609
sg348
g1333
sbsS'IwTextParser.h'
p2601
g322
(g1475
g324
Ntp2602
Rp2603
(dp2604
g1479
g1356
sg1480
g1516
sg348
g1376
sbsS's3eTimer.h'
p2605
g322
(g1475
g324
Ntp2606
Rp2607
(dp2608
g1479
g1487
sg1480
g1503
sg348
S'c:/marmalade/7.6/s3e/h/s3eTimer.h'
p2609
sbsS'IwGeomVec.h'
p2610
g322
(g1475
g324
Ntp2611
Rp2612
(dp2613
g1479
g1202
sg1480
g1537
sg348
g1241
sbsS'IwSerialise.h'
p2614
g322
(g1475
g324
Ntp2615
Rp2616
(dp2617
g1479
g1356
sg1480
g1516
sg348
g1448
sbsS'cstdarg'
p2618
g322
(g1475
g324
Ntp2619
Rp2620
(dp2621
g1479
g1487
sg1480
g1488
sg348
S'c:/marmalade/7.6/s3e/h/std/c++/cstdarg'
p2622
sbsS'gl2ext.h'
p2623
g322
(g1475
g324
Ntp2624
Rp2625
(dp2626
g1479
g1487
sg1480
g1724
sg348
S'c:/marmalade/7.6/s3e/h/GLES2/gl2ext.h'
p2627
sbsS'IwChar.h'
p2628
g322
(g1475
g324
Ntp2629
Rp2630
(dp2631
g1479
g1356
sg1480
g1516
sg348
g1444
sbsS's3eSound.h'
p2632
g322
(g1475
g324
Ntp2633
Rp2634
(dp2635
g1479
g1487
sg1480
g1503
sg348
S'c:/marmalade/7.6/s3e/h/s3eSound.h'
p2636
sbsS'IwOptimiseThumb.h'
p2637
g322
(g1475
g324
Ntp2638
Rp2639
(dp2640
g1479
g1356
sg1480
g1516
sg348
g1414
sbsS'exception.h'
p2641
g322
(g1475
g324
Ntp2642
Rp2643
(dp2644
g1479
g1487
sg1480
g1488
sg348
S'c:/marmalade/7.6/s3e/h/std/c++/exception.h'
p2645
sbsS'iwgeom.config.txt'
p2646
g322
(g1475
g324
Ntp2647
Rp2648
(dp2649
g1479
g1202
sg1480
g1537
sg348
g1223
sbsS'iwgx.mkf'
p2650
g322
(g1475
g324
Ntp2651
Rp2652
(dp2653
g1479
g1343
sg1480
g1609
sg348
g1341
sbsS'gl.h'
p2654
g322
(g1475
g324
Ntp2655
Rp2656
(dp2657
g1479
g1487
sg1480
g2022
sg348
S'c:/marmalade/7.6/s3e/h/GLES/gl.h'
p2658
sbsS'zlib.h'
p2659
g322
(g1475
g324
Ntp2660
Rp2661
(dp2662
g1479
g1461
sg1480
g2123
sg348
g1459
sbsS'temp_defines_release.h'
p2663
g322
(g1475
g324
Ntp2664
Rp2665
(dp2666
g1479
(lp2667
sg1480
(lp2668
S"'generated files'"
p2669
asg348
S'c:/Users/Sean/Documents/C++/Mormalade/Game01/build_game01_vc12x/temp_defines_release.h'
p2670
sbsS'iwgl.mkf'
p2671
g322
(g1475
g324
Ntp2672
Rp2673
(dp2674
g1479
g1159
sg1480
g1497
sg348
g1157
sbsS'IwColour.h'
p2675
g322
(g1475
g324
Ntp2676
Rp2677
(dp2678
g1479
g1302
sg1480
g1609
sg348
g1327
sbsS's3eLibrary.h'
p2679
g322
(g1475
g324
Ntp2680
Rp2681
(dp2682
g1479
g1487
sg1480
g1692
sg348
S'c:/marmalade/7.6/s3e/h/ext/s3eLibrary.h'
p2683
sbsS'types.h'
p2684
g322
(g1475
g324
Ntp2685
Rp2686
(dp2687
g1479
g1487
sg1480
g1623
sg348
S'c:/marmalade/7.6/s3e/h/std/sys/types.h'
p2688
sbsS'ifaddrs.h'
p2689
g322
(g1475
g324
Ntp2690
Rp2691
(dp2692
g1479
g1487
sg1480
g1509
sg348
S'c:/marmalade/7.6/s3e/h/std/ifaddrs.h'
p2693
sbsS'strstream'
p2694
g322
(g1475
g324
Ntp2695
Rp2696
(dp2697
g1479
g1487
sg1480
g1488
sg348
S'c:/marmalade/7.6/s3e/h/std/c++/strstream'
p2698
sbsS'exception'
p2699
g322
(g1475
g324
Ntp2700
Rp2701
(dp2702
g1479
g1487
sg1480
g1488
sg348
S'c:/marmalade/7.6/s3e/h/std/c++/exception'
p2703
sbsS'rlocks.h'
p2704
g322
(g1475
g324
Ntp2705
Rp2706
(dp2707
g1479
g1487
sg1480
g1488
sg348
S'c:/marmalade/7.6/s3e/h/std/c++/rlocks.h'
p2708
sbsS'ioctl.h'
p2709
g322
(g1475
g324
Ntp2710
Rp2711
(dp2712
g1479
g1487
sg1480
g1623
sg348
S'c:/marmalade/7.6/s3e/h/std/sys/ioctl.h'
p2713
sbsS'rope'
p2714
g322
(g1475
g324
Ntp2715
Rp2716
(dp2717
g1479
g1487
sg1480
g1488
sg348
S'c:/marmalade/7.6/s3e/h/std/c++/rope'
p2718
sbsS'jinclude.h'
p2719
g322
(g1475
g324
Ntp2720
Rp2721
(dp2722
g1479
g1091
sg1480
g1567
sg348
g1102
sbsS'IwEvent.h'
p2723
g322
(g1475
g324
Ntp2724
Rp2725
(dp2726
g1479
g1356
sg1480
g1516
sg348
g1366
sbsS'IwOptimiseSize.h'
p2727
g322
(g1475
g324
Ntp2728
Rp2729
(dp2730
g1479
g1356
sg1480
g1516
sg348
g1372
sbsS'iwgxfont_public.defines.txt'
p2731
g322
(g1475
g324
Ntp2732
Rp2733
(dp2734
g1479
g1180
sg1480
g1481
sg348
g1190
sbsS'iconv.h'
p2735
g322
(g1475
g324
Ntp2736
Rp2737
(dp2738
g1479
g1487
sg1480
g1509
sg348
S'c:/marmalade/7.6/s3e/h/std/iconv.h'
p2739
sbsS'sendfile.h'
p2740
g322
(g1475
g324
Ntp2741
Rp2742
(dp2743
g1479
g1487
sg1480
g1623
sg348
S'c:/marmalade/7.6/s3e/h/std/sys/sendfile.h'
p2744
sbsS'IwGeomSphere.h'
p2745
g322
(g1475
g324
Ntp2746
Rp2747
(dp2748
g1479
g1202
sg1480
g1537
sg348
g1261
sbsS'tiniconv.mkf'
p2749
g322
(g1475
g324
Ntp2750
Rp2751
(dp2752
g1479
g1130
sg1480
g1922
sg348
g1128
sbsS'jdct.h'
p2753
g322
(g1475
g324
Ntp2754
Rp2755
(dp2756
g1479
g1091
sg1480
g1567
sg348
g1114
sbsS'cctype'
p2757
g322
(g1475
g324
Ntp2758
Rp2759
(dp2760
g1479
g1487
sg1480
g1488
sg348
S'c:/marmalade/7.6/s3e/h/std/c++/cctype'
p2761
sbsS's3eConfig.h'
p2762
g322
(g1475
g324
Ntp2763
Rp2764
(dp2765
g1479
g1487
sg1480
g1503
sg348
S'c:/marmalade/7.6/s3e/h/s3eConfig.h'
p2766
sbsS'IwHashString.h'
p2767
g322
(g1475
g324
Ntp2768
Rp2769
(dp2770
g1479
g1356
sg1480
g1516
sg348
g1418
sbsS'stat.h'
p2771
g322
(g1475
g324
Ntp2772
Rp2773
(dp2774
g1479
g1487
sg1480
g1623
sg348
S'c:/marmalade/7.6/s3e/h/std/sys/stat.h'
p2775
sbsS'byteswap.h'
p2776
g322
(g1475
g324
Ntp2777
Rp2778
(dp2779
g1479
g1487
sg1480
g1509
sg348
S'c:/marmalade/7.6/s3e/h/std/byteswap.h'
p2780
sbsS'iwresmanager.mkf'
p2781
g322
(g1475
g324
Ntp2782
Rp2783
(dp2784
g1479
g1291
sg1480
g1732
sg348
g1289
sbsS'IwUtilInitTerm.h'
p2785
g322
(g1475
g324
Ntp2786
Rp2787
(dp2788
g1479
g1356
sg1480
g1516
sg348
g1384
sbsS'pthread_1.h'
p2789
g322
(g1475
g324
Ntp2790
Rp2791
(dp2792
g1479
g1487
sg1480
g1488
sg348
S'c:/marmalade/7.6/s3e/h/std/c++/pthread.h'
p2793
sbsS'IwMemBucket.h'
p2794
g322
(g1475
g324
Ntp2795
Rp2796
(dp2797
g1479
g1356
sg1480
g1516
sg348
g1370
sbsS'complex'
p2798
g322
(g1475
g324
Ntp2799
Rp2800
(dp2801
g1479
g1487
sg1480
g1488
sg348
S'c:/marmalade/7.6/s3e/h/std/c++/complex'
p2802
sbsS's3e.icf'
p2803
g322
(g1475
g324
Ntp2804
Rp2805
(dp2806
g1479
g1487
sg1480
g1503
sg348
S'c:/marmalade/7.6/s3e/s3e.icf'
p2807
sbsS'IwVariableBitField.h'
p2808
g322
(g1475
g324
Ntp2809
Rp2810
(dp2811
g1479
g1356
sg1480
g1516
sg348
g1386
sbsS'sem.h'
p2812
g322
(g1475
g324
Ntp2813
Rp2814
(dp2815
g1479
g1487
sg1480
g1623
sg348
S'c:/marmalade/7.6/s3e/h/std/sys/sem.h'
p2816
sbsS'IwGxFontState.h'
p2817
g322
(g1475
g324
Ntp2818
Rp2819
(dp2820
g1479
g1180
sg1480
g1481
sg348
g1181
sbsS'stdio.h'
p2821
g322
(g1475
g324
Ntp2822
Rp2823
(dp2824
g1479
g1487
sg1480
g1509
sg348
S'c:/marmalade/7.6/s3e/h/std/stdio.h'
p2825
sbsS'jmemsys.h'
p2826
g322
(g1475
g324
Ntp2827
Rp2828
(dp2829
g1479
g1091
sg1480
g1567
sg348
g1112
sbsS'ios'
p2830
g322
(g1475
g324
Ntp2831
Rp2832
(dp2833
g1479
g1487
sg1480
g1488
sg348
S'c:/marmalade/7.6/s3e/h/std/c++/ios'
p2834
sbsS'IwGeomFVec4.h'
p2835
g322
(g1475
g324
Ntp2836
Rp2837
(dp2838
g1479
g1202
sg1480
g1537
sg348
g1249
sbsS'stack'
p2839
g322
(g1475
g324
Ntp2840
Rp2841
(dp2842
g1479
g1487
sg1480
g1488
sg348
S'c:/marmalade/7.6/s3e/h/std/c++/stack'
p2843
sbsS'new.h'
p2844
g322
(g1475
g324
Ntp2845
Rp2846
(dp2847
g1479
g1487
sg1480
g1488
sg348
S'c:/marmalade/7.6/s3e/h/std/c++/new.h'
p2848
sbsS's3eEMail.h'
p2849
g322
(g1475
g324
Ntp2850
Rp2851
(dp2852
g1479
g1487
sg1480
g1692
sg348
S'c:/marmalade/7.6/s3e/h/ext/s3eEMail.h'
p2853
sbsS's3eVideo.h'
p2854
g322
(g1475
g324
Ntp2855
Rp2856
(dp2857
g1479
g1487
sg1480
g1503
sg348
S'c:/marmalade/7.6/s3e/h/s3eVideo.h'
p2858
sbsS'pngconf.h'
p2859
g322
(g1475
g324
Ntp2860
Rp2861
(dp2862
g1479
g1080
sg1480
g2178
sg348
g1081
sbsS'pwd.h'
p2863
g322
(g1475
g324
Ntp2864
Rp2865
(dp2866
g1479
g1487
sg1480
g1509
sg348
S'c:/marmalade/7.6/s3e/h/std/pwd.h'
p2867
sbsS'gl3.h'
p2868
g322
(g1475
g324
Ntp2869
Rp2870
(dp2871
g1479
g1487
sg1480
g1779
sg348
S'c:/marmalade/7.6/s3e/h/GLES3/gl3.h'
p2872
sbsS'IwClip.h'
p2873
g322
(g1475
g324
Ntp2874
Rp2875
(dp2876
g1479
g1302
sg1480
g1609
sg348
g1311
sbsS'iwresmanager.config.txt'
p2877
g322
(g1475
g324
Ntp2878
Rp2879
(dp2880
g1479
g1278
sg1480
g1732
sg348
g1285
sbsS'IwGxShaderTechnique.h'
p2881
g322
(g1475
g324
Ntp2882
Rp2883
(dp2884
g1479
g1302
sg1480
g1609
sg348
g1344
sbsS'IwCore.h'
p2885
g322
(g1475
g324
Ntp2886
Rp2887
(dp2888
g1479
g1356
sg1480
g1516
sg348
g1412
sbsS'cfloat'
p2889
g322
(g1475
g324
Ntp2890
Rp2891
(dp2892
g1479
g1487
sg1480
g1488
sg348
S'c:/marmalade/7.6/s3e/h/std/c++/cfloat'
p2893
sbsS'IwGeomMat2D.h'
p2894
g322
(g1475
g324
Ntp2895
Rp2896
(dp2897
g1479
g1202
sg1480
g1537
sg348
g1211
sbsS'IwAllocator.h'
p2898
g322
(g1475
g324
Ntp2899
Rp2900
(dp2901
g1479
g1356
sg1480
g1516
sg348
g1400
sbsS'IwPath.h'
p2902
g322
(g1475
g324
Ntp2903
Rp2904
(dp2905
g1479
g1356
sg1480
g1516
sg348
g1382
sbsS'iwgxfont.mkf'
p2906
g322
(g1475
g324
Ntp2907
Rp2908
(dp2909
g1479
g1185
sg1480
g1481
sg348
g1183
sbsS'IwTexture.h'
p2910
g322
(g1475
g324
Ntp2911
Rp2912
(dp2913
g1479
g1302
sg1480
g1609
sg348
g1321
sbsS'IwGeomVec.h.tpl'
p2914
g322
(g1475
g324
Ntp2915
Rp2916
(dp2917
g1479
g1202
sg1480
g1537
sg348
g1267
sbsS's3eAccelerometer.h'
p2918
g322
(g1475
g324
Ntp2919
Rp2920
(dp2921
g1479
g1487
sg1480
g1503
sg348
S'c:/marmalade/7.6/s3e/h/s3eAccelerometer.h'
p2922
sbsS'setjmp.h'
p2923
g322
(g1475
g324
Ntp2924
Rp2925
(dp2926
g1479
g1487
sg1480
g1509
sg348
S'c:/marmalade/7.6/s3e/h/std/setjmp.h'
p2927
sbsS'IwFile.h'
p2928
g322
(g1475
g324
Ntp2929
Rp2930
(dp2931
g1479
g1356
sg1480
g1516
sg348
g1357
sbsS'IwTextParseable.h'
p2932
g322
(g1475
g324
Ntp2933
Rp2934
(dp2935
g1479
g1356
sg1480
g1516
sg348
g1426
sbsS'istream.h'
p2936
g322
(g1475
g324
Ntp2937
Rp2938
(dp2939
g1479
g1487
sg1480
g1488
sg348
S'c:/marmalade/7.6/s3e/h/std/c++/istream.h'
p2940
sbsS'stdint.h'
p2941
g322
(g1475
g324
Ntp2942
Rp2943
(dp2944
g1479
g1487
sg1480
g1509
sg348
S'c:/marmalade/7.6/s3e/h/std/stdint.h'
p2945
sbsS'semaphore.h'
p2946
g322
(g1475
g324
Ntp2947
Rp2948
(dp2949
g1479
g1487
sg1480
g1509
sg348
S'c:/marmalade/7.6/s3e/h/std/semaphore.h'
p2950
sbsS'ctime'
p2951
g322
(g1475
g324
Ntp2952
Rp2953
(dp2954
g1479
g1487
sg1480
g1488
sg348
S'c:/marmalade/7.6/s3e/h/std/c++/ctime'
p2955
sbsS'sstream'
p2956
g322
(g1475
g324
Ntp2957
Rp2958
(dp2959
g1479
g1487
sg1480
g1488
sg348
S'c:/marmalade/7.6/s3e/h/std/c++/sstream'
p2960
sbsS'IwGeomFBBox.h'
p2961
g322
(g1475
g324
Ntp2962
Rp2963
(dp2964
g1479
g1202
sg1480
g1537
sg348
g1251
sbsS'IwDebugPrim.h'
p2965
g322
(g1475
g324
Ntp2966
Rp2967
(dp2968
g1479
g1302
sg1480
g1609
sg348
g1329
sbsS'IwGxFontContainer.h'
p2969
g322
(g1475
g324
Ntp2970
Rp2971
(dp2972
g1479
g1180
sg1480
g1481
sg348
g1188
sbsS'IwGeomSVec3.h'
p2973
g322
(g1475
g324
Ntp2974
Rp2975
(dp2976
g1479
g1202
sg1480
g1537
sg348
g1200
sbsS'cassert'
p2977
g322
(g1475
g324
Ntp2978
Rp2979
(dp2980
g1479
g1487
sg1480
g1488
sg348
S'c:/marmalade/7.6/s3e/h/std/c++/cassert'
p2981
sbsS'IwGeomFVec3.h'
p2982
g322
(g1475
g324
Ntp2983
Rp2984
(dp2985
g1479
g1202
sg1480
g1537
sg348
g1259
sbsS'streambuf'
p2986
g322
(g1475
g324
Ntp2987
Rp2988
(dp2989
g1479
g1487
sg1480
g1488
sg348
S'c:/marmalade/7.6/s3e/h/std/c++/streambuf'
p2990
sbsS's3eMetrics.h'
p2991
g322
(g1475
g324
Ntp2992
Rp2993
(dp2994
g1479
g1487
sg1480
g1692
sg348
S'c:/marmalade/7.6/s3e/h/ext/s3eMetrics.h'
p2995
sbsS'IwGxFont.h'
p2996
g322
(g1475
g324
Ntp2997
Rp2998
(dp2999
g1479
g1180
sg1480
g1481
sg348
g1192
sbsS's3eSecureStorage.h'
p3000
g322
(g1475
g324
Ntp3001
Rp3002
(dp3003
g1479
g1487
sg1480
g1503
sg348
S'c:/marmalade/7.6/s3e/h/s3eSecureStorage.h'
p3004
sbsS'string.h'
p3005
g322
(g1475
g324
Ntp3006
Rp3007
(dp3008
g1479
g1487
sg1480
g1509
sg348
S'c:/marmalade/7.6/s3e/h/std/string.h'
p3009
sbsS'IwResource.h'
p3010
g322
(g1475
g324
Ntp3011
Rp3012
(dp3013
g1479
g1356
sg1480
g1516
sg348
g1374
sbsS'IwGeomSVec2.h'
p3014
g322
(g1475
g324
Ntp3015
Rp3016
(dp3017
g1479
g1202
sg1480
g1537
sg348
g1207
sbsS'libjpeg.mkf'
p3018
g322
(g1475
g324
Ntp3019
Rp3020
(dp3021
g1479
g1120
sg1480
(lp3022
g1086
asg348
g1118
sbsS'IwGxDebug.h'
p3023
g322
(g1475
g324
Ntp3024
Rp3025
(dp3026
g1479
g1302
sg1480
g1609
sg348
g1303
sbsS'pthread_types.h'
p3027
g322
(g1475
g324
Ntp3028
Rp3029
(dp3030
g1479
g1487
sg1480
g1509
sg348
S'c:/marmalade/7.6/s3e/h/std/pthread_types.h'
p3031
sbsS'iomanip.h'
p3032
g322
(g1475
g324
Ntp3033
Rp3034
(dp3035
g1479
g1487
sg1480
g1488
sg348
S'c:/marmalade/7.6/s3e/h/std/c++/iomanip.h'
p3036
sbsS'IwKeymap.h'
p3037
g322
(g1475
g324
Ntp3038
Rp3039
(dp3040
g1479
g1356
sg1480
g1516
sg348
g1378
sbsS'IwDebug.h'
p3041
g322
(g1475
g324
Ntp3042
Rp3043
(dp3044
g1479
g1356
sg1480
g1516
sg348
g1438
sbsS's3eIOSBackgroundAudio.h'
p3045
g322
(g1475
g324
Ntp3046
Rp3047
(dp3048
g1479
g1487
sg1480
g1692
sg348
S'c:/marmalade/7.6/s3e/h/ext/s3eIOSBackgroundAudio.h'
p3049
sbsS'IwGeomMenu.h'
p3050
g322
(g1475
g324
Ntp3051
Rp3052
(dp3053
g1479
g1202
sg1480
g1537
sg348
g1247
sbsS'IwDivTable.h'
p3054
g322
(g1475
g324
Ntp3055
Rp3056
(dp3057
g1479
g1356
sg1480
g1516
sg348
g1402
sbsS'ctype.h'
p3058
g322
(g1475
g324
Ntp3059
Rp3060
(dp3061
g1479
g1487
sg1480
g1509
sg348
S'c:/marmalade/7.6/s3e/h/std/ctype.h'
p3062
sbsS'IwGeomMat.h'
p3063
g322
(g1475
g324
Ntp3064
Rp3065
(dp3066
g1479
g1202
sg1480
g1537
sg348
g1233
sbsS'IwResGroup.h'
p3067
g322
(g1475
g324
Ntp3068
Rp3069
(dp3070
g1479
g1278
sg1480
g1732
sg348
g1287
sbsS'signal_1.h'
p3071
g322
(g1475
g324
Ntp3072
Rp3073
(dp3074
g1479
g1487
sg1480
g1623
sg348
S'c:/marmalade/7.6/s3e/h/std/sys/signal.h'
p3075
sbsS'functional'
p3076
g322
(g1475
g324
Ntp3077
Rp3078
(dp3079
g1479
g1487
sg1480
g1488
sg348
S'c:/marmalade/7.6/s3e/h/std/c++/functional'
p3080
sbsS'shm.h'
p3081
g322
(g1475
g324
Ntp3082
Rp3083
(dp3084
g1479
g1487
sg1480
g1623
sg348
S'c:/marmalade/7.6/s3e/h/std/sys/shm.h'
p3085
sbsS'IwManagedList.h'
p3086
g322
(g1475
g324
Ntp3087
Rp3088
(dp3089
g1479
g1356
sg1480
g1516
sg348
g1404
sbsS'prctl.h'
p3090
g322
(g1475
g324
Ntp3091
Rp3092
(dp3093
g1479
g1487
sg1480
g1623
sg348
S'c:/marmalade/7.6/s3e/h/std/sys/prctl.h'
p3094
sbsS'un.h'
p3095
g322
(g1475
g324
Ntp3096
Rp3097
(dp3098
g1479
g1487
sg1480
g1623
sg348
S'c:/marmalade/7.6/s3e/h/std/sys/un.h'
p3099
sbsS'temp_defines_debug.h'
p3100
g322
(g1475
g324
Ntp3101
Rp3102
(dp3103
g1479
(lp3104
sg1480
(lp3105
g2669
asg348
S'c:/Users/Sean/Documents/C++/Mormalade/Game01/build_game01_vc12x/temp_defines_debug.h'
p3106
sbsS'utility'
p3107
g322
(g1475
g324
Ntp3108
Rp3109
(dp3110
g1479
g1487
sg1480
g1488
sg348
S'c:/marmalade/7.6/s3e/h/std/c++/utility'
p3111
sbsS'IwGeomLegacy.h'
p3112
g322
(g1475
g324
Ntp3113
Rp3114
(dp3115
g1479
g1202
sg1480
g1537
sg348
g1269
sbsS'IwTPage.h'
p3116
g322
(g1475
g324
Ntp3117
Rp3118
(dp3119
g1479
g1302
sg1480
g1609
sg348
g1339
sbsS'IwResSerialise.h'
p3120
g322
(g1475
g324
Ntp3121
Rp3122
(dp3123
g1479
g1278
sg1480
g1732
sg348
g1294
sbsS's3eCrypto.h'
p3124
g322
(g1475
g324
Ntp3125
Rp3126
(dp3127
g1479
g1487
sg1480
g1503
sg348
S'c:/marmalade/7.6/s3e/h/s3eCrypto.h'
p3128
sbsS's3eKeyboard.h'
p3129
g322
(g1475
g324
Ntp3130
Rp3131
(dp3132
g1479
g1487
sg1480
g1503
sg348
S'c:/marmalade/7.6/s3e/h/s3eKeyboard.h'
p3133
sbsS'fcntl.h'
p3134
g322
(g1475
g324
Ntp3135
Rp3136
(dp3137
g1479
g1487
sg1480
g1509
sg348
S'c:/marmalade/7.6/s3e/h/std/fcntl.h'
p3138
sbsS'memory.h'
p3139
g322
(g1475
g324
Ntp3140
Rp3141
(dp3142
g1479
g1487
sg1480
g1509
sg348
S'c:/marmalade/7.6/s3e/h/std/memory.h'
p3143
sbsS'pthread.h'
p3144
g322
(g1475
g324
Ntp3145
Rp3146
(dp3147
g1479
g1487
sg1480
g1509
sg348
S'c:/marmalade/7.6/s3e/h/std/pthread.h'
p3148
sbsS'IwGeomIntersect.h'
p3149
g322
(g1475
g324
Ntp3150
Rp3151
(dp3152
g1479
g1202
sg1480
g1537
sg348
g1237
sbsS'algorithm'
p3153
g322
(g1475
g324
Ntp3154
Rp3155
(dp3156
g1479
g1487
sg1480
g1488
sg348
S'c:/marmalade/7.6/s3e/h/std/c++/algorithm'
p3157
sbsS'egl_1.h'
p3158
g322
(g1475
g324
Ntp3159
Rp3160
(dp3161
g1479
g1487
sg1480
g2022
sg348
S'c:/marmalade/7.6/s3e/h/GLES/egl.h'
p3162
sbsS'ostream.h'
p3163
g322
(g1475
g324
Ntp3164
Rp3165
(dp3166
g1479
g1487
sg1480
g1488
sg348
S'c:/marmalade/7.6/s3e/h/std/c++/ostream.h'
p3167
sbsS'stl_user_config.h'
p3168
g322
(g1475
g324
Ntp3169
Rp3170
(dp3171
g1479
g1487
sg1480
g1488
sg348
S'c:/marmalade/7.6/s3e/h/std/c++/stl_user_config.h'
p3172
sbsS'IwProfileMenu.h'
p3173
g322
(g1475
g324
Ntp3174
Rp3175
(dp3176
g1479
g1356
sg1480
g1516
sg348
g1416
sbsS'MarmaladeVersion.h'
p3177
g322
(g1475
g324
Ntp3178
Rp3179
(dp3180
g1479
g1487
sg1480
g1503
sg348
S'c:/marmalade/7.6/s3e/h/MarmaladeVersion.h'
p3181
sbsS'gl3platform.h'
p3182
g322
(g1475
g324
Ntp3183
Rp3184
(dp3185
g1479
g1487
sg1480
g1779
sg348
S'c:/marmalade/7.6/s3e/h/GLES3/gl3platform.h'
p3186
sbsS'ios.h'
p3187
g322
(g1475
g324
Ntp3188
Rp3189
(dp3190
g1479
g1487
sg1480
g1488
sg348
S'c:/marmalade/7.6/s3e/h/std/c++/ios.h'
p3191
sbsS'IwImageHelper.h'
p3192
g322
(g1475
g324
Ntp3193
Rp3194
(dp3195
g1479
g1356
sg1480
g1516
sg348
g1436
sbsS'hash_set'
p3196
g322
(g1475
g324
Ntp3197
Rp3198
(dp3199
g1479
g1487
sg1480
g1488
sg348
S'c:/marmalade/7.6/s3e/h/std/c++/hash_set'
p3200
sbsS'IwGeomFQuat.h'
p3201
g322
(g1475
g324
Ntp3202
Rp3203
(dp3204
g1479
g1202
sg1480
g1537
sg348
g1239
sbsS'jmorecfg.h'
p3205
g322
(g1475
g324
Ntp3206
Rp3207
(dp3208
g1479
g1091
sg1480
g1567
sg348
g1116
sbsS'eglplatform.h'
p3209
g322
(g1475
g324
Ntp3210
Rp3211
(dp3212
g1479
g1487
sg1480
g1811
sg348
S'c:/marmalade/7.6/s3e/h/EGL/eglplatform.h'
p3213
sbsS'stdbool.h'
p3214
g322
(g1475
g324
Ntp3215
Rp3216
(dp3217
g1479
g1487
sg1480
g1509
sg348
S'c:/marmalade/7.6/s3e/h/std/stdbool.h'
p3218
sbsS'math_gcc.h'
p3219
g322
(g1475
g324
Ntp3220
Rp3221
(dp3222
g1479
g1487
sg1480
g1509
sg348
S'c:/marmalade/7.6/s3e/h/std/math_gcc.h'
p3223
sbsS's3eMemory.h'
p3224
g322
(g1475
g324
Ntp3225
Rp3226
(dp3227
g1479
g1487
sg1480
g1503
sg348
S'c:/marmalade/7.6/s3e/h/s3eMemory.h'
p3228
sbsS'strings.h'
p3229
g322
(g1475
g324
Ntp3230
Rp3231
(dp3232
g1479
g1487
sg1480
g1509
sg348
S'c:/marmalade/7.6/s3e/h/std/strings.h'
p3233
sbsS's3eFile.h'
p3234
g322
(g1475
g324
Ntp3235
Rp3236
(dp3237
g1479
g1487
sg1480
g1503
sg348
S'c:/marmalade/7.6/s3e/h/s3eFile.h'
p3238
sbsS'IwGxTypes.h'
p3239
g322
(g1475
g324
Ntp3240
Rp3241
(dp3242
g1479
g1302
sg1480
g1609
sg348
g1350
sbsS'cerrno'
p3243
g322
(g1475
g324
Ntp3244
Rp3245
(dp3246
g1479
g1487
sg1480
g1488
sg348
S'c:/marmalade/7.6/s3e/h/std/c++/cerrno'
p3247
sbsS'resource.h'
p3248
g322
(g1475
g324
Ntp3249
Rp3250
(dp3251
g1479
g1487
sg1480
g1623
sg348
S'c:/marmalade/7.6/s3e/h/std/sys/resource.h'
p3252
sbsS'clocale'
p3253
g322
(g1475
g324
Ntp3254
Rp3255
(dp3256
g1479
g1487
sg1480
g1488
sg348
S'c:/marmalade/7.6/s3e/h/std/c++/clocale'
p3257
sbsS'pvrtextool.mkf'
p3258
g322
(g1475
g324
Ntp3259
Rp3260
(dp3261
g1479
g1147
sg1480
g2054
sg348
g1145
sbsS'csetjmp'
p3262
g322
(g1475
g324
Ntp3263
Rp3264
(dp3265
g1479
g1487
sg1480
g1488
sg348
S'c:/marmalade/7.6/s3e/h/std/c++/csetjmp'
p3266
sbsS'netdb.h'
p3267
g322
(g1475
g324
Ntp3268
Rp3269
(dp3270
g1479
g1487
sg1480
g1509
sg348
S'c:/marmalade/7.6/s3e/h/std/netdb.h'
p3271
sbsS's3eAndroidJNI.h'
p3272
g322
(g1475
g324
Ntp3273
Rp3274
(dp3275
g1479
g1487
sg1480
g1692
sg348
S'c:/marmalade/7.6/s3e/h/ext/s3eAndroidJNI.h'
p3276
sbsS'stdexcept'
p3277
g322
(g1475
g324
Ntp3278
Rp3279
(dp3280
g1479
g1487
sg1480
g1488
sg348
S'c:/marmalade/7.6/s3e/h/std/c++/stdexcept'
p3281
sbsS'math.h'
p3282
g322
(g1475
g324
Ntp3283
Rp3284
(dp3285
g1479
g1487
sg1480
g1509
sg348
S'c:/marmalade/7.6/s3e/h/std/math.h'
p3286
sbsS'cmath'
p3287
g322
(g1475
g324
Ntp3288
Rp3289
(dp3290
g1479
g1487
sg1480
g1488
sg348
S'c:/marmalade/7.6/s3e/h/std/c++/cmath'
p3291
sbsS'uio.h'
p3292
g322
(g1475
g324
Ntp3293
Rp3294
(dp3295
g1479
g1487
sg1480
g1623
sg348
S'c:/marmalade/7.6/s3e/h/std/sys/uio.h'
p3296
sbsS'IwUncopyable.h'
p3297
g322
(g1475
g324
Ntp3298
Rp3299
(dp3300
g1479
g1356
sg1480
g1516
sg348
g1398
sbssS'juice_build_type'
p3301
g4
sS'tests'
p3302
(lp3303
sS'project_name'
p3304
g330
sS'root_file'
p3305
g131
sS'current_root'
p3306
S'c:/Users/Sean/Documents/C++/Mormalade/Game01'
p3307
sS'dependencies'
p3308
(lp3309
sS'include_paths'
p3310
(lp3311
S'c:/marmalade/7.6/modules/iwutil/h'
p3312
aS'c:/marmalade/7.6/modules/third_party/libjpeg/h'
p3313
aS'c:/marmalade/7.6/modules/third_party/zlib/h'
p3314
aS'c:/marmalade/7.6/modules/third_party/libpng/h'
p3315
aS'c:/marmalade/7.6/modules/iwgx/h'
p3316
aS'c:/marmalade/7.6/modules/iwgl/h'
p3317
aS'c:/marmalade/7.6/modules/iwgeom/h'
p3318
aS'c:/marmalade/7.6/modules/iwresmanager/h'
p3319
aS'c:/marmalade/7.6/extensions/pvrtextool/h'
p3320
aS'c:/marmalade/7.6/modules/iw2d/h'
p3321
aS'c:/marmalade/7.6/modules/iwgxfont/h'
p3322
aS'c:/marmalade/7.6/modules/third_party/tiniconv/source'
p3323
aS'c:/marmalade/7.6/s3e/h'
p3324
aS'c:/marmalade/7.6/s3e/h/ext'
p3325
aS'c:/marmalade/7.6/s3e/h/std'
p3326
aS'c:/marmalade/7.6/s3e/h/std/c++'
p3327
aS'c:/marmalade/7.6/s3e/h/ext_legacy'
p3328
aS'c:/marmalade/7.6/s3e/h/legacy'
p3329
asS'weak_frameworks'
p3330
(lp3331
sS'extprojects'
p3332
(dp3333
sg585
(dp3334
g579
(lp3335
(g87
S'.'
p3336
I0
tp3337
assS'macro_types'
p3338
(dp3339
g526
I1
sg527
I0
sg528
I0
sg529
I0
sg530
I0
sg531
I0
sg532
I0
sg533
I0
sg534
I0
sg536
I0
sg537
I0
sg538
I0
sg539
I0
sg541
I0
sg543
I0
sg544
I0
sg545
I0
sg546
I0
sg547
I1
sg548
I0
sg549
I0
sg550
I0
sg551
I01
sg552
I1
sg553
I0
sg554
I0
sg555
I0
sg557
I0
sg558
I0
sg559
I0
ssS'commands'
p3340
(lp3341
sg587
(g1067
S'VC12X'
p3342
S'X86ARMAARCH64'
p3343
tp3344
sS'build_libs'
p3345
(dp3346
sg589
g0
sS'frameworks'
p3347
(lp3348
sS'environ'
p3349
(dp3350
sS'target_name_debug'
p3351
g330
sS'builders'
p3352
(dp3353
g579
(dp3354
S'.S'
p3355
(dp3356
S'gcc_aarch64'
p3357
(lp3358
S'.obj'
p3359
aS'echo AARCH64 Assembling(GCC) ${SOURCE}...'
p3360
aS'c:/marmalade/7.6/s3e\\gcc\\win32\\aarch64\\bin\\aarch64-none-elf-gcc -c -o ${TARGET} ${SOURCE}'
p3361
asS'rvct'
p3362
(lp3363
g3359
aS'echo ARM Assembling(RVCT) ${SOURCE}...'
p3364
aS'c:/marmalade/7.6/s3e\\rvct\\bin\\armasm -o ${TARGET} ${SOURCE}'
p3365
asg444
(lp3366
g3359
aS'echo ARM Assembling(GCC) ${SOURCE}...'
p3367
aS'c:/marmalade/7.6/s3e\\gcc\\win32\\arm\\bin\\arm-none-eabi-gcc -c -o ${TARGET} ${SOURCE}'
p3368
asS'ppu'
p3369
(lp3370
S'.a'
p3371
aS'echo PPU Assembling(SNC) ${SOURCE}...'
p3372
aS'c:/marmalade/7.6/s3e\\rvct\\bin\\armasm -o ${TARGET} ${SOURCE}'
p3373
assS'.s'
p3374
g3356
sS'.vp'
p3375
(lp3376
NaS'"C:/Marmalade/7.6/s3e/python/python.exe" "c:/marmalade/7.6/modules/iwgx/tools/compile_shaders.py" ${SOURCE}'
p3377
asssS'extproject_names'
p3378
(lp3379
sbtp3380
.